(dp0
F0.0
(F0.5
F0.0
tp1
sF0.125
(F0.299
F0.06
tp2
sF0.957
(F0.04
F0.406
tp3
sF0.213
(F0.241
F0.086
tp4
sF0.809
(F0.08
F0.256
tp5
sF0.5
(F0.144
F0.153
tp6
sF1.0
(F0.0
F0.5
tp7
sF0.011
(F0.471
F0.014
tp8
sF0.867
(F0.065
F0.292
tp9
sF0.788
(F0.085
F0.245
tp10
sF0.996
(F0.011
F0.498
tp11
sF0.044
(F0.401
F0.031
tp12
sF0.342
(F0.188
F0.117
tp13
sF0.434
(F0.16
F0.137
tp14
sF0.301
(F0.203
F0.108
tp15
sF0.768
(F0.089
F0.235
tp16
sF0.625
(F0.118
F0.186
tp17
sF0.03
(F0.427
F0.024
tp18
sF0.138
(F0.288
F0.065
tp19
sF0.335
(F0.19
F0.115
tp20
sF0.807
(F0.081
F0.255
tp21
sF0.729
(F0.097
F0.219
tp22
sF0.467
(F0.152
F0.145
tp23
sF0.022
(F0.443
F0.02
tp24
sF0.519
(F0.14
F0.157
tp25
sF0.578
(F0.127
F0.172
tp26
sF0.423
(F0.163
F0.135
tp27
sF0.193
(F0.251
F0.08
tp28
sF0.801
(F0.082
F0.252
tp29
sF0.883
(F0.061
F0.305
tp30
sF0.705
(F0.102
F0.211
tp31
sF0.902
(F0.055
F0.323
tp32
sF0.004
(F0.492
F0.007
tp33
sF0.689
(F0.104
F0.205
tp34
sF0.85
(F0.069
F0.28
tp35
sF0.27
(F0.215
F0.101
tp36
sF0.863
(F0.066
F0.289
tp37
sF0.321
(F0.195
F0.113
tp38
sF0.115
(F0.308
F0.057
tp39
sF0.156
(F0.274
F0.07
tp40
sF0.186
(F0.255
F0.079
tp41
sF0.967
(F0.034
F0.428
tp42
sF0.149
(F0.28
F0.068
tp43
sF0.874
(F0.063
F0.297
tp44
sF0.725
(F0.098
F0.218
tp45
sF0.237
(F0.229
F0.093
tp46
sF0.843
(F0.071
F0.275
tp47
sF0.552
(F0.133
F0.166
tp48
sF0.087
(F0.338
F0.048
tp49
sF0.538
(F0.136
F0.162
tp50
sF0.597
(F0.124
F0.178
tp51
sF0.815
(F0.079
F0.26
tp52
sF0.244
(F0.226
F0.095
tp53
sF0.71
(F0.1
F0.213
tp54
sF0.785
(F0.085
F0.244
tp55
sF0.986
(F0.024
F0.476
tp56
sF0.73
(F0.097
F0.22
tp57
sF0.055
(F0.382
F0.037
tp58
sF0.564
(F0.13
F0.169
tp59
sF0.666
(F0.109
F0.198
tp60
sF0.997
(F0.013
F0.499
tp61
sF0.808
(F0.081
F0.255
tp62
sF0.017
(F0.455
F0.018
tp63
sF0.966
(F0.035
F0.426
tp64
sF0.449
(F0.156
F0.141
tp65
sF0.207
(F0.244
F0.085
tp66
sF0.703
(F0.102
F0.21
tp67
sF0.499
(F0.144
F0.152
tp68
sF0.769
(F0.089
F0.236
tp69
sF0.627
(F0.118
F0.186
tp70
sF0.53
(F0.137
F0.16
tp71
sF0.983
(F0.025
F0.469
tp72
sF0.831
(F0.074
F0.268
tp73
sF0.377
(F0.177
F0.125
tp74
sF0.112
(F0.311
F0.056
tp75
sF0.328
(F0.193
F0.114
tp76
sF0.295
(F0.205
F0.106
tp77
sF0.692
(F0.104
F0.206
tp78
sF0.557
(F0.131
F0.167
tp79
sF0.256
(F0.221
F0.098
tp80
sF0.644
(F0.114
F0.191
tp81
sF0.233
(F0.231
F0.092
tp82
sF0.098
(F0.325
F0.051
tp83
sF0.583
(F0.126
F0.174
tp84
sF0.318
(F0.196
F0.112
tp85
sF0.374
(F0.178
F0.124
tp86
sF0.247
(F0.224
F0.096
tp87
sF0.903
(F0.055
F0.324
tp88
sF0.21
(F0.242
F0.085
tp89
sF0.173
(F0.263
F0.075
tp90
sF0.104
(F0.319
F0.053
tp91
sF0.908
(F0.053
F0.33
tp92
sF0.656
(F0.111
F0.195
tp93
sF0.842
(F0.071
F0.275
tp94
sF0.495
(F0.145
F0.151
tp95
sF0.075
(F0.353
F0.045
tp96
sF0.1
(F0.323
F0.052
tp97
sF0.367
(F0.18
F0.123
tp98
sF0.622
(F0.119
F0.185
tp99
sF0.636
(F0.116
F0.189
tp100
sF0.167
(F0.267
F0.073
tp101
sF0.446
(F0.157
F0.14
tp102
sF0.288
(F0.207
F0.105
tp103
sF0.543
(F0.134
F0.164
tp104
sF0.119
(F0.304
F0.059
tp105
sF0.987
(F0.024
F0.479
tp106
sF0.19
(F0.253
F0.08
tp107
sF0.059
(F0.376
F0.039
tp108
sF0.484
(F0.147
F0.149
tp109
sF0.26
(F0.219
F0.098
tp110
sF0.726
(F0.098
F0.218
tp111
sF0.46
(F0.153
F0.143
tp112
sF0.746
(F0.094
F0.226
tp113
sF0.766
(F0.089
F0.235
tp114
sF0.602
(F0.123
F0.179
tp115
sF0.733
(F0.096
F0.221
tp116
sF0.439
(F0.159
F0.138
tp117
sF0.416
(F0.165
F0.133
tp118
sF0.338
(F0.189
F0.116
tp119
sF0.56
(F0.131
F0.168
tp120
sF0.066
(F0.366
F0.042
tp121
sF0.817
(F0.078
F0.26
tp122
sF0.11
(F0.312
F0.055
tp123
sF0.392
(F0.172
F0.128
tp124
sF0.75
(F0.092
F0.228
tp125
sF0.183
(F0.257
F0.078
tp126
sF0.311
(F0.199
F0.11
tp127
sF0.36
(F0.182
F0.121
tp128
sF0.722
(F0.098
F0.217
tp129
sF0.146
(F0.282
F0.067
tp130
sF0.719
(F0.099
F0.216
tp131
sF0.348
(F0.186
F0.118
tp132
sF0.674
(F0.107
F0.2
tp133
sF0.405
(F0.168
F0.131
tp134
sF0.893
(F0.058
F0.315
tp135
sF0.806
(F0.081
F0.254
tp136
sF0.226
(F0.235
F0.09
tp137
sF0.362
(F0.181
F0.121
tp138
sF0.711
(F0.1
F0.213
tp139
sF0.932
(F0.047
F0.361
tp140
sF0.8
(F0.082
F0.251
tp141
sF0.22
(F0.237
F0.088
tp142
sF0.873
(F0.064
F0.297
tp143
sF0.562
(F0.13
F0.168
tp144
sF0.621
(F0.119
F0.184
tp145
sF0.099
(F0.324
F0.051
tp146
sF0.44
(F0.159
F0.138
tp147
sF0.7
(F0.102
F0.209
tp148
sF0.626
(F0.118
F0.186
tp149
sF0.072
(F0.357
F0.044
tp150
sF0.588
(F0.126
F0.176
tp151
sF0.34
(F0.189
F0.117
tp152
sF0.027
(F0.433
F0.023
tp153
sF0.652
(F0.112
F0.193
tp154
sF0.827
(F0.075
F0.266
tp155
sF0.814
(F0.079
F0.259
tp156
sF0.847
(F0.07
F0.278
tp157
sF0.322
(F0.195
F0.113
tp158
sF0.386
(F0.174
F0.127
tp159
sF0.116
(F0.307
F0.057
tp160
sF0.78
(F0.087
F0.241
tp161
sF0.988
(F0.024
F0.481
tp162
sF0.641
(F0.114
F0.19
tp163
sF0.645
(F0.114
F0.191
tp164
sF0.23
(F0.232
F0.091
tp165
sF0.261
(F0.219
F0.099
tp166
sF0.16
(F0.271
F0.071
tp167
sF0.574
(F0.128
F0.171
tp168
sF0.078
(F0.349
F0.046
tp169
sF0.968
(F0.034
F0.43
tp170
sF0.373
(F0.178
F0.124
tp171
sF0.122
(F0.301
F0.06
tp172
sF0.962
(F0.037
F0.416
tp173
sF0.289
(F0.207
F0.105
tp174
sF0.505
(F0.143
F0.154
tp175
sF0.548
(F0.133
F0.165
tp176
sF0.607
(F0.122
F0.181
tp177
sF0.582
(F0.126
F0.174
tp178
sF0.948
(F0.044
F0.389
tp179
sF0.657
(F0.111
F0.195
tp180
sF0.677
(F0.107
F0.201
tp181
sF0.816
(F0.078
F0.26
tp182
sF0.299
(F0.203
F0.108
tp183
sF0.933
(F0.046
F0.363
tp184
sF0.701
(F0.102
F0.21
tp185
sF0.458
(F0.154
F0.142
tp186
sF0.3
(F0.203
F0.108
tp187
sF0.929
(F0.047
F0.357
tp188
sF0.959
(F0.038
F0.41
tp189
sF0.037
(F0.414
F0.028
tp190
sF0.894
(F0.058
F0.316
tp191
sF0.488
(F0.146
F0.15
tp192
sF0.333
(F0.191
F0.115
tp193
sF0.835
(F0.073
F0.27
tp194
sF0.254
(F0.221
F0.097
tp195
sF0.339
(F0.189
F0.116
tp196
sF0.947
(F0.044
F0.387
tp197
sF0.35
(F0.185
F0.119
tp198
sF0.852
(F0.069
F0.281
tp199
sF0.923
(F0.049
F0.349
tp200
sF0.747
(F0.093
F0.226
tp201
sF0.42
(F0.164
F0.134
tp202
sF0.782
(F0.086
F0.242
tp203
sF0.642
(F0.114
F0.19
tp204
sF0.824
(F0.076
F0.264
tp205
sF0.501
(F0.144
F0.153
tp206
sF0.99
(F0.019
F0.486
tp207
sF0.048
(F0.394
F0.033
tp208
sF0.396
(F0.171
F0.129
tp209
sF0.759
(F0.091
F0.231
tp210
sF0.473
(F0.15
F0.146
tp211
sF0.281
(F0.21
F0.103
tp212
sF0.196
(F0.249
F0.081
tp213
sF0.593
(F0.124
F0.177
tp214
sF0.28
(F0.21
F0.103
tp215
sF0.166
(F0.268
F0.073
tp216
sF0.352
(F0.184
F0.119
tp217
sF0.258
(F0.22
F0.098
tp218
sF0.453
(F0.155
F0.142
tp219
sF0.309
(F0.2
F0.11
tp220
sF0.155
(F0.275
F0.07
tp221
sF0.09
(F0.334
F0.049
tp222
sF0.781
(F0.086
F0.242
tp223
sF0.451
(F0.156
F0.141
tp224
sF0.286
(F0.208
F0.105
tp225
sF0.409
(F0.167
F0.131
tp226
sF0.546
(F0.134
F0.165
tp227
sF0.958
(F0.039
F0.409
tp228
sF0.951
(F0.043
F0.394
tp229
sF0.761
(F0.09
F0.232
tp230
sF0.372
(F0.178
F0.123
tp231
sF0.13
(F0.295
F0.063
tp232
sF0.708
(F0.101
F0.212
tp233
sF0.938
(F0.045
F0.371
tp234
sF0.66
(F0.11
F0.196
tp235
sF0.553
(F0.132
F0.166
tp236
sF0.612
(F0.121
F0.182
tp237
sF0.135
(F0.29
F0.064
tp238
sF0.014
(F0.463
F0.016
tp239
sF0.828
(F0.075
F0.266
tp240
sF0.206
(F0.244
F0.084
tp241
sF0.762
(F0.09
F0.233
tp242
sF0.723
(F0.098
F0.217
tp243
sF0.524
(F0.139
F0.159
tp244
sF0.884
(F0.061
F0.306
tp245
sF0.176
(F0.261
F0.075
tp246
sF0.398
(F0.17
F0.129
tp247
sF0.743
(F0.094
F0.225
tp248
sF0.2
(F0.247
F0.083
tp249
sF0.223
(F0.236
F0.089
tp250
sF0.111
(F0.312
F0.056
tp251
sF0.411
(F0.167
F0.132
tp252
sF0.638
(F0.115
F0.189
tp253
sF0.139
(F0.287
F0.065
tp254
sF0.875
(F0.063
F0.298
tp255
sF0.227
(F0.234
F0.091
tp256
sF0.825
(F0.076
F0.265
tp257
sF0.882
(F0.061
F0.305
tp258
sF0.095
(F0.328
F0.051
tp259
sF0.844
(F0.071
F0.276
tp260
sF0.49
(F0.146
F0.15
tp261
sF0.763
(F0.09
F0.233
tp262
sF0.153
(F0.277
F0.069
tp263
sF0.506
(F0.142
F0.154
tp264
sF0.972
(F0.032
F0.44
tp265
sF0.241
(F0.227
F0.094
tp266
sF0.093
(F0.331
F0.05
tp267
sF0.936
(F0.045
F0.368
tp268
sF0.051
(F0.389
F0.035
tp269
sF0.678
(F0.107
F0.202
tp270
sF0.931
(F0.047
F0.36
tp271
sF0.539
(F0.135
F0.163
tp272
sF0.053
(F0.386
F0.036
tp273
sF0.979
(F0.028
F0.458
tp274
sF0.492
(F0.146
F0.15
tp275
sF0.203
(F0.246
F0.083
tp276
sF0.998
(F0.0
F0.5
tp277
sF0.468
(F0.151
F0.145
tp278
sF0.616
(F0.12
F0.183
tp279
sF0.298
(F0.204
F0.108
tp280
sF0.81
(F0.08
F0.257
tp281
sF0.565
(F0.13
F0.169
tp282
sF0.391
(F0.173
F0.128
tp283
sF0.376
(F0.177
F0.125
tp284
sF0.751
(F0.092
F0.228
tp285
sF0.424
(F0.163
F0.135
tp286
sF0.742
(F0.094
F0.224
tp287
sF0.083
(F0.343
F0.047
tp288
sF0.79
(F0.085
F0.246
tp289
sF0.4
(F0.169
F0.129
tp290
sF0.312
(F0.198
F0.11
tp291
sF0.939
(F0.045
F0.372
tp292
sF0.349
(F0.185
F0.119
tp293
sF0.039
(F0.41
F0.029
tp294
sF0.905
(F0.055
F0.326
tp295
sF0.481
(F0.148
F0.148
tp296
sF0.77
(F0.088
F0.236
tp297
sF0.755
(F0.091
F0.23
tp298
sF0.202
(F0.246
F0.083
tp299
sF0.062
(F0.371
F0.04
tp300
sF0.129
(F0.296
F0.062
tp301
sF0.885
(F0.061
F0.307
tp302
sF0.275
(F0.213
F0.102
tp303
sF0.413
(F0.166
F0.132
tp304
sF0.594
(F0.124
F0.177
tp305
sF0.525
(F0.138
F0.159
tp306
sF0.163
(F0.27
F0.072
tp307
sF0.952
(F0.043
F0.397
tp308
sF0.739
(F0.095
F0.223
tp309
sF0.063
(F0.37
F0.04
tp310
sF0.389
(F0.173
F0.127
tp311
sF0.107
(F0.316
F0.054
tp312
sF0.08
(F0.346
F0.046
tp313
sF0.865
(F0.065
F0.29
tp314
sF0.217
(F0.239
F0.087
tp315
sF0.177
(F0.261
F0.076
tp316
sF0.096
(F0.327
F0.051
tp317
sF0.351
(F0.185
F0.119
tp318
sF0.668
(F0.109
F0.199
tp319
sF0.637
(F0.115
F0.189
tp320
sF0.845
(F0.071
F0.277
tp321
sF0.117
(F0.306
F0.058
tp322
sF0.469
(F0.151
F0.145
tp323
sF0.864
(F0.065
F0.29
tp324
sF0.463
(F0.153
F0.144
tp325
sF0.43
(F0.161
F0.136
tp326
sF0.18
(F0.259
F0.077
tp327
sF0.489
(F0.146
F0.15
tp328
sF0.654
(F0.112
F0.194
tp329
sF0.532
(F0.137
F0.161
tp330
sF0.617
(F0.12
F0.183
tp331
sF0.579
(F0.127
F0.173
tp332
sF0.799
(F0.083
F0.251
tp333
sF0.012
(F0.468
F0.016
tp334
sF0.034
(F0.419
F0.026
tp335
sF0.197
(F0.249
F0.082
tp336
sF0.744
(F0.094
F0.225
tp337
sF0.569
(F0.129
F0.17
tp338
sF0.776
(F0.087
F0.239
tp339
sF0.94
(F0.044
F0.374
tp340
sF0.949
(F0.043
F0.391
tp341
sF0.143
(F0.284
F0.066
tp342
sF0.521
(F0.139
F0.158
tp343
sF0.752
(F0.092
F0.228
tp344
sF0.511
(F0.141
F0.156
tp345
sF0.57
(F0.129
F0.17
tp346
sF0.331
(F0.192
F0.114
tp347
sF0.876
(F0.063
F0.299
tp348
sF0.384
(F0.174
F0.126
tp349
sF0.04
(F0.408
F0.029
tp350
sF0.084
(F0.341
F0.047
tp351
sF0.51
(F0.142
F0.155
tp352
sF0.252
(F0.222
F0.097
tp353
sF0.086
(F0.339
F0.048
tp354
sF0.068
(F0.363
F0.042
tp355
sF0.659
(F0.11
F0.195
tp356
sF0.906
(F0.054
F0.328
tp357
sF0.056
(F0.381
F0.037
tp358
sF0.925
(F0.049
F0.351
tp359
sF0.187
(F0.255
F0.079
tp360
sF0.371
(F0.178
F0.123
tp361
sF0.15
(F0.279
F0.068
tp362
sF0.248
(F0.224
F0.096
tp363
sF0.067
(F0.364
F0.042
tp364
sF0.238
(F0.229
F0.094
tp365
sF0.624
(F0.118
F0.185
tp366
sF0.886
(F0.061
F0.309
tp367
sF0.428
(F0.162
F0.136
tp368
sF0.14
(F0.287
F0.066
tp369
sF0.589
(F0.125
F0.176
tp370
sF0.848
(F0.07
F0.278
tp371
sF0.866
(F0.065
F0.291
tp372
sF0.613
(F0.12
F0.182
tp373
sF0.297
(F0.204
F0.107
tp374
sF0.887
(F0.06
F0.309
tp375
sF0.218
(F0.239
F0.088
tp376
sF0.081
(F0.345
F0.046
tp377
sF0.485
(F0.147
F0.149
tp378
sF0.114
(F0.309
F0.057
tp379
sF0.461
(F0.153
F0.143
tp380
sF0.727
(F0.097
F0.219
tp381
sF0.403
(F0.169
F0.13
tp382
sF0.37
(F0.179
F0.123
tp383
sF0.174
(F0.263
F0.075
tp384
sF0.417
(F0.165
F0.133
tp385
sF0.977
(F0.029
F0.453
tp386
sF0.792
(F0.084
F0.247
tp387
sF0.026
(F0.435
F0.023
tp388
sF0.393
(F0.172
F0.128
tp389
sF0.549
(F0.133
F0.165
tp390
sF0.608
(F0.122
F0.181
tp391
sF0.95
(F0.043
F0.392
tp392
sF0.257
(F0.22
F0.098
tp393
sF0.204
(F0.245
F0.084
tp394
sF0.969
(F0.034
F0.432
tp395
sF0.234
(F0.231
F0.093
tp396
sF0.635
(F0.116
F0.188
tp397
sF0.192
(F0.252
F0.08
tp398
sF0.269
(F0.215
F0.101
tp399
sF0.772
(F0.088
F0.237
tp400
sF0.655
(F0.111
F0.194
tp401
sF0.01
(F0.473
F0.013
tp402
sF0.516
(F0.141
F0.157
tp403
sF0.575
(F0.128
F0.172
tp404
sF0.124
(F0.3
F0.06
tp405
sF0.211
(F0.242
F0.086
tp406
sF0.889
(F0.06
F0.311
tp407
sF0.154
(F0.276
F0.069
tp408
sF0.442
(F0.158
F0.139
tp409
sF0.926
(F0.048
F0.353
tp410
sF0.427
(F0.162
F0.136
tp411
sF0.935
(F0.045
F0.366
tp412
sF0.171
(F0.264
F0.074
tp413
sF0.675
(F0.107
F0.2
tp414
sF0.702
(F0.102
F0.21
tp415
sF0.271
(F0.214
F0.101
tp416
sF0.363
(F0.181
F0.121
tp417
sF0.242
(F0.227
F0.094
tp418
sF0.529
(F0.137
F0.16
tp419
sF0.891
(F0.059
F0.313
tp420
sF0.9
(F0.056
F0.321
tp421
sF0.284
(F0.209
F0.104
tp422
sF0.535
(F0.136
F0.162
tp423
sF0.134
(F0.291
F0.064
tp424
sF0.566
(F0.129
F0.169
tp425
sF0.895
(F0.058
F0.317
tp426
sF0.749
(F0.093
F0.227
tp427
sF0.518
(F0.14
F0.157
tp428
sF0.285
(F0.209
F0.104
tp429
sF0.457
(F0.154
F0.142
tp430
sF0.188
(F0.254
F0.079
tp431
sF0.639
(F0.115
F0.189
tp432
sF0.802
(F0.082
F0.252
tp433
sF0.716
(F0.099
F0.215
tp434
sF0.319
(F0.196
F0.112
tp435
sF0.48
(F0.149
F0.148
tp436
sF0.611
(F0.121
F0.182
tp437
sF0.17
(F0.265
F0.074
tp438
sF0.971
(F0.033
F0.437
tp439
sF0.343
(F0.187
F0.117
tp440
sF0.435
(F0.16
F0.137
tp441
sF0.266
(F0.217
F0.1
tp442
sF0.317
(F0.196
F0.112
tp443
sF0.307
(F0.2
F0.109
tp444
sF0.184
(F0.256
F0.078
tp445
sF0.294
(F0.205
F0.106
tp446
sF0.264
(F0.218
F0.099
tp447
sF0.356
(F0.183
F0.12
tp448
sF0.554
(F0.132
F0.166
tp449
sF0.235
(F0.23
F0.093
tp450
sF0.364
(F0.181
F0.122
tp451
sF0.756
(F0.091
F0.23
tp452
sF0.064
(F0.369
F0.041
tp453
sF0.515
(F0.141
F0.156
tp454
sF0.651
(F0.112
F0.193
tp455
sF0.101
(F0.322
F0.052
tp456
sF0.224
(F0.235
F0.09
tp457
sF0.58
(F0.127
F0.173
tp458
sF0.465
(F0.152
F0.144
tp459
sF0.671
(F0.108
F0.2
tp460
sF0.663
(F0.11
F0.197
tp461
sF0.846
(F0.07
F0.277
tp462
sF0.148
(F0.28
F0.068
tp463
sF0.916
(F0.051
F0.339
tp464
sF0.687
(F0.105
F0.204
tp465
sF0.228
(F0.234
F0.091
tp466
sF0.421
(F0.164
F0.134
tp467
sF0.877
(F0.062
F0.3
tp468
sF0.33
(F0.192
F0.114
tp469
sF0.397
(F0.171
F0.129
tp470
sF0.818
(F0.078
F0.261
tp471
sF0.118
(F0.305
F0.059
tp472
sF0.336
(F0.19
F0.116
tp473
sF0.303
(F0.202
F0.109
tp474
sF0.741
(F0.095
F0.224
tp475
sF0.857
(F0.067
F0.284
tp476
sF0.002
(F0.498
F0.004
tp477
sF0.713
(F0.1
F0.214
tp478
sF0.128
(F0.297
F0.062
tp479
sF0.382
(F0.175
F0.126
tp480
sF0.474
(F0.15
F0.147
tp481
sF0.54
(F0.135
F0.163
tp482
sF0.822
(F0.077
F0.263
tp483
sF0.337
(F0.19
F0.116
tp484
sF0.194
(F0.251
F0.081
tp485
sF0.314
(F0.197
F0.111
tp486
sF0.803
(F0.081
F0.253
tp487
sF0.158
(F0.273
F0.071
tp488
sF0.245
(F0.226
F0.095
tp489
sF0.291
(F0.206
F0.106
tp490
sF0.993
(F0.01
F0.493
tp491
sF0.537
(F0.136
F0.162
tp492
sF0.676
(F0.107
F0.201
tp493
sF0.783
(F0.086
F0.242
tp494
sF0.599
(F0.123
F0.179
tp495
sF0.341
(F0.188
F0.117
tp496
sF0.982
(F0.025
F0.466
tp497
sF0.699
(F0.102
F0.209
tp498
sF0.851
(F0.069
F0.28
tp499
sF0.358
(F0.183
F0.12
tp500
sF0.454
(F0.155
F0.142
tp501
sF0.074
(F0.354
F0.045
tp502
sF0.937
(F0.045
F0.369
tp503
sF0.008
(F0.479
F0.011
tp504
sF0.375
(F0.178
F0.124
tp505
sF0.724
(F0.098
F0.218
tp506
sF0.919
(F0.05
F0.343
tp507
sF0.688
(F0.105
F0.205
tp508
sF0.25
(F0.223
F0.096
tp509
sF0.526
(F0.138
F0.159
tp510
sF0.049
(F0.392
F0.034
tp511
sF0.697
(F0.103
F0.208
tp512
sF0.917
(F0.051
F0.34
tp513
sF0.717
(F0.099
F0.215
tp514
sF0.704
(F0.102
F0.21
tp515
sF0.071
(F0.359
F0.043
tp516
sF0.853
(F0.068
F0.282
tp517
sF0.862
(F0.066
F0.288
tp518
sF0.559
(F0.131
F0.167
tp519
sF0.618
(F0.119
F0.184
tp520
sF0.922
(F0.049
F0.347
tp521
sF0.897
(F0.057
F0.319
tp522
sF0.924
(F0.049
F0.35
tp523
sF0.504
(F0.143
F0.154
tp524
sF0.159
(F0.272
F0.071
tp525
sF0.334
(F0.191
F0.115
tp526
sF0.06
(F0.374
F0.039
tp527
sF0.065
(F0.367
F0.041
tp528
sF0.092
(F0.332
F0.049
tp529
sF0.368
(F0.179
F0.123
tp530
sF0.669
(F0.109
F0.199
tp531
sF0.109
(F0.314
F0.055
tp532
sF0.811
(F0.08
F0.257
tp533
sF0.973
(F0.032
F0.442
tp534
sF0.181
(F0.258
F0.077
tp535
sF0.478
(F0.149
F0.147
tp536
sF0.507
(F0.142
F0.155
tp537
sF0.036
(F0.416
F0.028
tp538
sF0.447
(F0.157
F0.14
tp539
sF0.369
(F0.179
F0.123
tp540
sF0.672
(F0.108
F0.2
tp541
sF0.995
(F0.008
F0.496
tp542
sF0.425
(F0.163
F0.135
tp543
sF0.401
(F0.169
F0.13
tp544
sF0.278
(F0.211
F0.103
tp545
sF0.032
(F0.423
F0.026
tp546
sF0.981
(F0.027
F0.463
tp547
sF0.684
(F0.105
F0.204
tp548
sF0.105
(F0.318
F0.054
tp549
sF0.784
(F0.086
F0.243
tp550
sF0.992
(F0.014
F0.49
tp551
sF0.545
(F0.134
F0.164
tp552
sF0.604
(F0.122
F0.18
tp553
sF0.753
(F0.092
F0.229
tp554
sF0.721
(F0.099
F0.216
tp555
sF0.019
(F0.45
F0.018
tp556
sF0.329
(F0.192
F0.114
tp557
sF0.764
(F0.09
F0.234
tp558
sF0.927
(F0.048
F0.354
tp559
sF0.673
(F0.108
F0.2
tp560
sF0.714
(F0.1
F0.214
tp561
sF0.346
(F0.186
F0.118
tp562
sF0.394
(F0.172
F0.128
tp563
sF0.361
(F0.182
F0.121
tp564
sF0.018
(F0.453
F0.018
tp565
sF0.585
(F0.126
F0.175
tp566
sF0.907
(F0.054
F0.329
tp567
sF0.255
(F0.221
F0.098
tp568
sF0.07
(F0.36
F0.043
tp569
sF0.282
(F0.209
F0.103
tp570
sF0.471
(F0.151
F0.146
tp571
sF0.057
(F0.379
F0.038
tp572
sF0.868
(F0.065
F0.293
tp573
sF0.191
(F0.252
F0.08
tp574
sF0.077
(F0.35
F0.045
tp575
sF0.965
(F0.036
F0.423
tp576
sF0.858
(F0.067
F0.285
tp577
sF0.121
(F0.302
F0.059
tp578
sF0.623
(F0.118
F0.185
tp579
sF0.355
(F0.184
F0.12
tp580
sF0.628
(F0.117
F0.186
tp581
sF0.205
(F0.245
F0.084
tp582
sF0.64
(F0.114
F0.19
tp583
sF0.306
(F0.201
F0.109
tp584
sF0.773
(F0.088
F0.238
tp585
sF0.379
(F0.177
F0.125
tp586
sF0.041
(F0.406
F0.03
tp587
sF0.59
(F0.125
F0.176
tp588
sF0.466
(F0.152
F0.144
tp589
sF0.085
(F0.34
F0.047
tp590
sF0.648
(F0.113
F0.192
tp591
sF0.357
(F0.183
F0.12
tp592
sF0.387
(F0.174
F0.127
tp593
sF0.479
(F0.149
F0.148
tp594
sF0.943
(F0.044
F0.38
tp595
sF0.436
(F0.16
F0.137
tp596
sF0.823
(F0.077
F0.264
tp597
sF0.718
(F0.099
F0.215
tp598
sF0.793
(F0.084
F0.248
tp599
sF0.133
(F0.292
F0.063
tp600
sF0.738
(F0.095
F0.223
tp601
sF0.308
(F0.2
F0.11
tp602
sF0.512
(F0.141
F0.156
tp603
sF0.508
(F0.142
F0.155
tp604
sF0.102
(F0.321
F0.053
tp605
sF0.819
(F0.078
F0.261
tp606
sF0.98
(F0.028
F0.46
tp607
sF0.754
(F0.092
F0.229
tp608
sF0.826
(F0.076
F0.265
tp609
sF0.496
(F0.145
F0.152
tp610
sF0.05
(F0.391
F0.034
tp611
sF0.609
(F0.121
F0.181
tp612
sF0.381
(F0.176
F0.126
tp613
sF0.221
(F0.237
F0.089
tp614
sF0.928
(F0.048
F0.356
tp615
sF0.201
(F0.247
F0.083
tp616
sF0.976
(F0.03
F0.45
tp617
sF0.838
(F0.073
F0.272
tp618
sF0.164
(F0.269
F0.072
tp619
sF0.517
(F0.14
F0.157
tp620
sF0.144
(F0.284
F0.067
tp621
sF0.653
(F0.112
F0.194
tp622
sF0.304
(F0.202
F0.109
tp623
sF0.305
(F0.201
F0.109
tp624
sF0.798
(F0.083
F0.25
tp625
sF0.089
(F0.336
F0.049
tp626
sF0.74
(F0.095
F0.223
tp627
sF0.023
(F0.441
F0.021
tp628
sF0.38
(F0.176
F0.125
tp629
sF0.347
(F0.186
F0.118
tp630
sF0.869
(F0.064
F0.294
tp631
sF0.486
(F0.147
F0.149
tp632
sF0.888
(F0.06
F0.31
tp633
sF0.277
(F0.212
F0.103
tp634
sF0.426
(F0.162
F0.135
tp635
sF0.65
(F0.113
F0.193
tp636
sF0.157
(F0.274
F0.071
tp637
sF0.681
(F0.106
F0.202
tp638
sF0.147
(F0.282
F0.067
tp639
sF0.418
(F0.165
F0.134
tp640
sF0.694
(F0.104
F0.207
tp641
sF0.536
(F0.136
F0.162
tp642
sF0.045
(F0.399
F0.032
tp643
sF0.67
(F0.108
F0.199
tp644
sF0.082
(F0.344
F0.047
tp645
sF0.96
(F0.038
F0.412
tp646
sF0.345
(F0.186
F0.118
tp647
sF0.963
(F0.037
F0.419
tp648
sF0.327
(F0.193
F0.114
tp649
sF0.775
(F0.087
F0.238
tp650
sF0.794
(F0.084
F0.248
tp651
sF0.534
(F0.136
F0.161
tp652
sF0.137
(F0.289
F0.065
tp653
sF0.498
(F0.144
F0.152
tp654
sF0.407
(F0.168
F0.131
tp655
sF0.325
(F0.194
F0.114
tp656
sF0.629
(F0.117
F0.187
tp657
sF0.047
(F0.395
F0.032
tp658
sF0.571
(F0.129
F0.17
tp659
sF0.649
(F0.113
F0.192
tp660
sF0.991
(F0.019
F0.488
tp661
sF0.302
(F0.202
F0.108
tp662
sF0.239
(F0.228
F0.094
tp663
sF0.419
(F0.164
F0.134
tp664
sF0.555
(F0.132
F0.166
tp665
sF0.054
(F0.384
F0.037
tp666
sF0.915
(F0.052
F0.338
tp667
sF0.215
(F0.24
F0.087
tp668
sF0.898
(F0.057
F0.319
tp669
sF0.879
(F0.062
F0.302
tp670
sF0.315
(F0.197
F0.111
tp671
sF0.522
(F0.139
F0.158
tp672
sF0.909
(F0.053
F0.331
tp673
sF0.232
(F0.231
F0.092
tp674
sF0.544
(F0.134
F0.164
tp675
sF0.878
(F0.062
F0.301
tp676
sF0.52
(F0.139
F0.158
tp677
sF0.178
(F0.26
F0.076
tp678
sF0.005
(F0.489
F0.007
tp679
sF0.287
(F0.208
F0.105
tp680
sF0.839
(F0.072
F0.273
tp681
sF0.999
(F0.0
F0.5
tp682
sF0.509
(F0.142
F0.155
tp683
sF0.195
(F0.25
F0.081
tp684
sF0.399
(F0.17
F0.129
tp685
sF0.491
(F0.146
F0.15
tp686
sF0.444
(F0.157
F0.139
tp687
sF0.141
(F0.286
F0.066
tp688
sF0.414
(F0.166
F0.133
tp689
sF0.464
(F0.153
F0.144
tp690
sF0.541
(F0.135
F0.163
tp691
sF0.6
(F0.123
F0.179
tp692
sF0.748
(F0.093
F0.227
tp693
sF0.316
(F0.197
F0.112
tp694
sF0.97
(F0.033
F0.435
tp695
sF0.198
(F0.249
F0.082
tp696
sF0.978
(F0.028
F0.455
tp697
sF0.789
(F0.085
F0.246
tp698
sF0.161
(F0.271
F0.071
tp699
sF0.765
(F0.09
F0.234
tp700
sF0.249
(F0.224
F0.096
tp701
sF0.127
(F0.297
F0.061
tp702
sF0.567
(F0.129
F0.169
tp703
sF0.212
(F0.241
F0.086
tp704
sF0.918
(F0.05
F0.342
tp705
sF0.737
(F0.095
F0.223
tp706
sF0.175
(F0.262
F0.075
tp707
sF0.804
(F0.081
F0.253
tp708
sF0.246
(F0.225
F0.095
tp709
sF0.745
(F0.094
F0.225
tp710
sF0.438
(F0.159
F0.138
tp711
sF0.422
(F0.163
F0.134
tp712
sF0.913
(F0.052
F0.336
tp713
sF0.706
(F0.101
F0.211
tp714
sF0.601
(F0.123
F0.179
tp715
sF0.069
(F0.361
F0.043
tp716
sF0.82
(F0.077
F0.262
tp717
sF0.872
(F0.064
F0.296
tp718
sF0.267
(F0.216
F0.1
tp719
sF0.359
(F0.182
F0.121
tp720
sF0.035
(F0.417
F0.027
tp721
sF0.84
(F0.072
F0.273
tp722
sF0.209
(F0.243
F0.085
tp723
sF0.665
(F0.11
F0.197
tp724
sF0.899
(F0.056
F0.32
tp725
sF0.771
(F0.088
F0.237
tp726
sF0.685
(F0.105
F0.204
tp727
sF0.912
(F0.052
F0.335
tp728
sF0.715
(F0.1
F0.214
tp729
sF0.813
(F0.079
F0.258
tp730
sF0.527
(F0.138
F0.159
tp731
sF0.586
(F0.126
F0.175
tp732
sF0.009
(F0.476
F0.013
tp733
sF0.007
(F0.482
F0.01
tp734
sF0.667
(F0.109
F0.198
tp735
sF0.432
(F0.161
F0.137
tp736
sF0.896
(F0.057
F0.318
tp737
sF0.172
(F0.264
F0.075
tp738
sF0.619
(F0.119
F0.184
tp739
sF0.735
(F0.096
F0.222
tp740
sF0.385
(F0.174
F0.126
tp741
sF0.859
(F0.067
F0.286
tp742
sF0.63
(F0.117
F0.187
tp743
sF0.531
(F0.137
F0.161
tp744
sF0.189
(F0.253
F0.079
tp745
sF0.268
(F0.216
F0.1
tp746
sF0.795
(F0.083
F0.248
tp747
sF0.029
(F0.429
F0.023
tp748
sF0.431
(F0.161
F0.136
tp749
sF0.222
(F0.236
F0.089
tp750
sF0.693
(F0.104
F0.207
tp751
sF0.185
(F0.256
F0.078
tp752
sF0.296
(F0.205
F0.107
tp753
sF0.994
(F0.011
F0.495
tp754
sF0.805
(F0.081
F0.254
tp755
sF0.236
(F0.23
F0.093
tp756
sF0.088
(F0.337
F0.048
tp757
sF0.038
(F0.412
F0.029
tp758
sF0.251
(F0.223
F0.096
tp759
sF0.974
(F0.031
F0.445
tp760
sF0.707
(F0.101
F0.211
tp761
sF0.513
(F0.141
F0.156
tp762
sF0.572
(F0.128
F0.171
tp763
sF0.028
(F0.431
F0.023
tp764
sF0.169
(F0.266
F0.074
tp765
sF0.942
(F0.044
F0.378
tp766
sF0.954
(F0.042
F0.4
tp767
sF0.433
(F0.16
F0.137
tp768
sF0.015
(F0.46
F0.017
tp769
sF0.605
(F0.122
F0.18
tp770
sF0.92
(F0.05
F0.344
tp771
sF0.378
(F0.177
F0.125
tp772
sF0.631
(F0.117
F0.187
tp773
sF0.033
(F0.421
F0.026
tp774
sF0.691
(F0.104
F0.206
tp775
sF0.332
(F0.191
F0.115
tp776
sF0.106
(F0.317
F0.054
tp777
sF0.836
(F0.073
F0.271
tp778
sF0.856
(F0.067
F0.284
tp779
sF0.904
(F0.055
F0.325
tp780
sF0.62
(F0.119
F0.184
tp781
sF0.47
(F0.151
F0.145
tp782
sF0.058
(F0.378
F0.038
tp783
sF0.591
(F0.125
F0.176
tp784
sF0.821
(F0.077
F0.262
tp785
sF0.265
(F0.217
F0.1
tp786
sF0.079
(F0.347
F0.046
tp787
sF0.123
(F0.3
F0.06
tp788
sF0.849
(F0.07
F0.279
tp789
sF0.293
(F0.206
F0.106
tp790
sF0.734
(F0.096
F0.221
tp791
sF0.043
(F0.403
F0.031
tp792
sF0.686
(F0.105
F0.204
tp793
sF0.696
(F0.103
F0.207
tp794
sF0.646
(F0.113
F0.192
tp795
sF0.366
(F0.18
F0.122
tp796
sF0.483
(F0.148
F0.149
tp797
sF0.632
(F0.116
F0.188
tp798
sF0.791
(F0.084
F0.247
tp799
sF0.404
(F0.168
F0.13
tp800
sF0.031
(F0.425
F0.025
tp801
sF0.598
(F0.123
F0.178
tp802
sF0.459
(F0.153
F0.143
tp803
sF0.025
(F0.437
F0.023
tp804
sF0.964
(F0.037
F0.421
tp805
sF0.55
(F0.133
F0.165
tp806
sF0.45
(F0.156
F0.141
tp807
sF0.073
(F0.356
F0.044
tp808
sF0.292
(F0.206
F0.106
tp809
sF0.767
(F0.089
F0.235
tp810
sF0.786
(F0.085
F0.244
tp811
sF0.712
(F0.1
F0.213
tp812
sF0.736
(F0.095
F0.222
tp813
sF0.944
(F0.044
F0.382
tp814
sF0.834
(F0.074
F0.27
tp815
sF0.664
(F0.11
F0.197
tp816
sF0.003
(F0.495
F0.007
tp817
sF0.577
(F0.127
F0.173
tp818
sF0.326
(F0.193
F0.114
tp819
sF0.472
(F0.15
F0.146
tp820
sF0.953
(F0.042
F0.398
tp821
sF0.941
(F0.044
F0.376
tp822
sF0.576
(F0.128
F0.172
tp823
sF0.448
(F0.157
F0.14
tp824
sF0.551
(F0.133
F0.166
tp825
sF0.61
(F0.121
F0.181
tp826
sF0.89
(F0.059
F0.312
tp827
sF0.528
(F0.138
F0.16
tp828
sF0.021
(F0.446
F0.019
tp829
sF0.126
(F0.298
F0.061
tp830
sF0.131
(F0.294
F0.063
tp831
sF0.219
(F0.238
F0.088
tp832
sF0.272
(F0.214
F0.101
tp833
sF0.69
(F0.104
F0.206
tp834
sF0.091
(F0.333
F0.049
tp835
sF0.87
(F0.064
F0.294
tp836
sF0.145
(F0.283
F0.067
tp837
sF0.443
(F0.158
F0.139
tp838
sF0.41
(F0.167
F0.132
tp839
sF0.214
(F0.24
F0.086
tp840
sF0.757
(F0.091
F0.231
tp841
sF0.437
(F0.159
F0.138
tp842
sF0.662
(F0.11
F0.196
tp843
sF0.024
(F0.439
F0.022
tp844
sF0.231
(F0.232
F0.092
tp845
sF0.563
(F0.13
F0.168
tp846
sF0.83
(F0.075
F0.268
tp847
sF0.494
(F0.145
F0.151
tp848
sF0.354
(F0.184
F0.12
tp849
sF0.854
(F0.068
F0.283
tp850
sF0.796
(F0.083
F0.249
tp851
sF0.497
(F0.145
F0.152
tp852
sF0.596
(F0.124
F0.178
tp853
sF0.493
(F0.145
F0.151
tp854
sF0.837
(F0.073
F0.272
tp855
sF0.503
(F0.143
F0.153
tp856
sF0.263
(F0.218
F0.099
tp857
sF0.732
(F0.097
F0.221
tp858
sF0.682
(F0.106
F0.203
tp859
sF0.984
(F0.025
F0.471
tp860
sF0.502
(F0.143
F0.153
tp861
sF0.39
(F0.173
F0.127
tp862
sF0.482
(F0.148
F0.149
tp863
sF0.945
(F0.044
F0.383
tp864
sF0.477
(F0.149
F0.147
tp865
sF0.229
(F0.233
F0.091
tp866
sF0.523
(F0.139
F0.158
tp867
sF0.052
(F0.387
F0.035
tp868
sF0.006
(F0.486
F0.009
tp869
sF0.93
(F0.047
F0.358
tp870
sF0.31
(F0.199
F0.11
tp871
sF0.243
(F0.226
F0.095
tp872
sF0.647
(F0.113
F0.192
tp873
sF0.731
(F0.097
F0.22
tp874
sF0.103
(F0.32
F0.053
tp875
sF0.556
(F0.132
F0.167
tp876
sF0.615
(F0.12
F0.183
tp877
sF0.91
(F0.053
F0.332
tp878
sF0.832
(F0.074
F0.268
tp879
sF0.812
(F0.08
F0.258
tp880
sF0.558
(F0.131
F0.167
tp881
sF0.961
(F0.038
F0.414
tp882
sF0.365
(F0.18
F0.122
tp883
sF0.013
(F0.465
F0.016
tp884
sF0.871
(F0.064
F0.295
tp885
sF0.462
(F0.153
F0.144
tp886
sF0.076
(F0.352
F0.045
tp887
sF0.595
(F0.124
F0.178
tp888
sF0.547
(F0.134
F0.165
tp889
sF0.274
(F0.213
F0.102
tp890
sF0.476
(F0.149
F0.147
tp891
sF0.383
(F0.175
F0.126
tp892
sF0.475
(F0.15
F0.147
tp893
sF0.208
(F0.243
F0.085
tp894
sF0.584
(F0.126
F0.174
tp895
sF0.452
(F0.156
F0.141
tp896
sF0.833
(F0.074
F0.269
tp897
sF0.661
(F0.11
F0.196
tp898
sF0.24
(F0.228
F0.094
tp899
sF0.225
(F0.235
F0.09
tp900
sF0.408
(F0.167
F0.131
tp901
sF0.797
(F0.083
F0.25
tp902
sF0.259
(F0.22
F0.098
tp903
sF0.698
(F0.103
F0.209
tp904
sF0.542
(F0.135
F0.163
tp905
sF0.061
(F0.373
F0.04
tp906
sF0.279
(F0.211
F0.103
tp907
sF0.76
(F0.091
F0.232
tp908
sF0.758
(F0.091
F0.231
tp909
sF0.165
(F0.268
F0.072
tp910
sF0.777
(F0.087
F0.239
tp911
sF0.016
(F0.457
F0.017
tp912
sF0.108
(F0.315
F0.055
tp913
sF0.568
(F0.129
F0.17
tp914
sF0.455
(F0.155
F0.142
tp915
sF0.179
(F0.259
F0.076
tp916
sF0.643
(F0.114
F0.191
tp917
sF0.142
(F0.285
F0.066
tp918
sF0.216
(F0.239
F0.087
tp919
sF0.88
(F0.062
F0.303
tp920
sF0.094
(F0.33
F0.05
tp921
sF0.151
(F0.278
F0.069
tp922
sF0.779
(F0.087
F0.241
tp923
sF0.02
(F0.448
F0.019
tp924
sF0.445
(F0.157
F0.139
tp925
sF0.934
(F0.046
F0.364
tp926
sF0.892
(F0.059
F0.314
tp927
sF0.946
(F0.044
F0.385
tp928
sF0.911
(F0.053
F0.333
tp929
sF0.561
(F0.13
F0.168
tp930
sF0.168
(F0.267
F0.073
tp931
sF0.861
(F0.066
F0.287
tp932
sF0.683
(F0.106
F0.203
tp933
sF0.353
(F0.184
F0.12
tp934
sF0.406
(F0.168
F0.131
tp935
sF0.132
(F0.293
F0.063
tp936
sF0.587
(F0.126
F0.175
tp937
sF0.402
(F0.169
F0.13
tp938
sF0.841
(F0.072
F0.274
tp939
sF0.262
(F0.218
F0.099
tp940
sF0.136
(F0.29
F0.064
tp941
sF0.633
(F0.116
F0.188
tp942
sF0.989
(F0.022
F0.484
tp943
sF0.323
(F0.194
F0.113
tp944
sF0.415
(F0.166
F0.133
tp945
sF0.097
(F0.326
F0.051
tp946
sF0.614
(F0.12
F0.183
tp947
sF0.276
(F0.212
F0.102
tp948
sF0.001
(F0.499
F0.0
tp949
sF0.985
(F0.024
F0.474
tp950
sF0.113
(F0.309
F0.056
tp951
sF0.313
(F0.198
F0.111
tp952
sF0.253
(F0.222
F0.097
tp953
sF0.152
(F0.278
F0.069
tp954
sF0.603
(F0.122
F0.18
tp955
sF0.956
(F0.04
F0.404
tp956
sF0.12
(F0.303
F0.059
tp957
sF0.975
(F0.03
F0.447
tp958
sF0.86
(F0.066
F0.287
tp959
sF0.388
(F0.174
F0.127
tp960
sF0.042
(F0.404
F0.03
tp961
sF0.606
(F0.122
F0.18
tp962
sF0.68
(F0.106
F0.202
tp963
sF0.778
(F0.087
F0.24
tp964
sF0.787
(F0.085
F0.245
tp965
sF0.182
(F0.257
F0.077
tp966
sF0.728
(F0.097
F0.219
tp967
sF0.914
(F0.052
F0.337
tp968
sF0.855
(F0.068
F0.283
tp969
sF0.955
(F0.041
F0.402
tp970
sF0.456
(F0.155
F0.142
tp971
sF0.592
(F0.125
F0.177
tp972
sF0.514
(F0.141
F0.156
tp973
sF0.573
(F0.128
F0.171
tp974
sF0.395
(F0.171
F0.129
tp975
sF0.921
(F0.049
F0.346
tp976
sF0.046
(F0.397
F0.032
tp977
sF0.199
(F0.248
F0.082
tp978
sF0.412
(F0.166
F0.132
tp979
sF0.709
(F0.101
F0.212
tp980
sF0.29
(F0.207
F0.105
tp981
sF0.581
(F0.127
F0.174
tp982
sF0.441
(F0.158
F0.139
tp983
sF0.283
(F0.209
F0.104
tp984
sF0.901
(F0.055
F0.322
tp985
sF0.679
(F0.106
F0.202
tp986
sF0.829
(F0.075
F0.267
tp987
sF0.658
(F0.111
F0.195
tp988
sF0.324
(F0.194
F0.113
tp989
sF0.344
(F0.187
F0.118
tp990
sF0.487
(F0.147
F0.15
tp991
sF0.72
(F0.098
F0.216
tp992
sF0.429
(F0.162
F0.136
tp993
sF0.32
(F0.195
F0.113
tp994
sF0.695
(F0.103
F0.207
tp995
sF0.774
(F0.088
F0.238
tp996
sF0.634
(F0.116
F0.188
tp997
sF0.533
(F0.137
F0.161
tp998
sF0.273
(F0.213
F0.102
tp999
sF0.881
(F0.062
F0.304
tp1000
sF0.162
(F0.27
F0.072
tp1001
s.