(dp0
F0.0
(F0.5
F0.0
F0.5
F0.0
tp1
sF0.125
(F0.2284
F0.0394
F0.2284
F0.0394
tp2
sF0.957
(F0.0228
F0.3512
F0.0228
F0.3512
tp3
sF0.213
(F0.1828
F0.0572
F0.1828
F0.0572
tp4
sF0.809
(F0.0578
F0.1976
F0.0578
F0.1976
tp5
sF0.5
(F0.1096
F0.1086
F0.1096
F0.1086
tp6
sF1.0
(F0.0
F0.5
F0.0
F0.5
tp7
sF0.011
(F0.4336
F0.0062
F0.4336
F0.0062
tp8
sF0.867
(F0.0464
F0.2328
F0.0464
F0.2328
tp9
sF0.788
(F0.0616
F0.1876
F0.0616
F0.1876
tp10
sF0.996
(F0.0058
F0.4916
F0.0058
F0.4916
tp11
sF0.044
(F0.3254
F0.0192
F0.3254
F0.0192
tp12
sF0.342
(F0.1436
F0.0798
F0.1436
F0.0798
tp13
sF0.434
(F0.1224
F0.0962
F0.1224
F0.0962
tp14
sF0.301
(F0.1544
F0.0728
F0.1544
F0.0728
tp15
sF0.768
(F0.0646
F0.1792
F0.0646
F0.1792
tp16
sF0.625
(F0.0882
F0.135
F0.0882
F0.135
tp17
sF0.03
(F0.3598
F0.0146
F0.3598
F0.0146
tp18
sF0.138
(F0.2194
F0.0426
F0.2194
F0.0426
tp19
sF0.335
(F0.1454
F0.0788
F0.1454
F0.0788
tp20
sF0.807
(F0.058
F0.1968
F0.058
F0.1968
tp21
sF0.729
(F0.0714
F0.1652
F0.0714
F0.1652
tp22
sF0.467
(F0.1158
F0.1022
F0.1158
F0.1022
tp23
sF0.022
(F0.3858
F0.0112
F0.3858
F0.0112
tp24
sF0.519
(F0.1064
F0.1124
F0.1064
F0.1124
tp25
sF0.578
(F0.0962
F0.1244
F0.0962
F0.1244
tp26
sF0.423
(F0.1246
F0.0942
F0.1246
F0.0942
tp27
sF0.193
(F0.191
F0.0534
F0.191
F0.0534
tp28
sF0.801
(F0.059
F0.1936
F0.059
F0.1936
tp29
sF0.883
(F0.043
F0.2458
F0.043
F0.2458
tp30
sF0.705
(F0.075
F0.1572
F0.075
F0.1572
tp31
sF0.902
(F0.0386
F0.264
F0.0386
F0.264
tp32
sF0.004
(F0.476
F0.0036
F0.476
F0.0036
tp33
sF0.689
(F0.0774
F0.1524
F0.0774
F0.1524
tp34
sF0.85
(F0.05
F0.2208
F0.05
F0.2208
tp35
sF0.27
(F0.1628
F0.0676
F0.1628
F0.0676
tp36
sF0.863
(F0.0474
F0.2298
F0.0474
F0.2298
tp37
sF0.321
(F0.1488
F0.0762
F0.1488
F0.0762
tp38
sF0.115
(F0.2354
F0.0374
F0.2354
F0.0374
tp39
sF0.156
(F0.2086
F0.0462
F0.2086
F0.0462
tp40
sF0.186
(F0.1938
F0.052
F0.1938
F0.052
tp41
sF0.967
(F0.0188
F0.377
F0.0188
F0.377
tp42
sF0.149
(F0.2126
F0.0452
F0.2126
F0.0452
tp43
sF0.874
(F0.0448
F0.2378
F0.0448
F0.2378
tp44
sF0.725
(F0.0718
F0.164
F0.0718
F0.164
tp45
sF0.237
(F0.174
F0.0618
F0.174
F0.0618
tp46
sF0.843
(F0.0516
F0.2162
F0.0516
F0.2162
tp47
sF0.552
(F0.1002
F0.1186
F0.1002
F0.1186
tp48
sF0.087
(F0.2612
F0.0308
F0.2612
F0.0308
tp49
sF0.538
(F0.1028
F0.116
F0.1028
F0.116
tp50
sF0.597
(F0.0932
F0.1286
F0.0932
F0.1286
tp51
sF0.815
(F0.0568
F0.2002
F0.0568
F0.2002
tp52
sF0.244
(F0.1712
F0.063
F0.1712
F0.063
tp53
sF0.71
(F0.0742
F0.159
F0.0742
F0.159
tp54
sF0.785
(F0.0618
F0.1864
F0.0618
F0.1864
tp55
sF0.986
(F0.0094
F0.443
F0.0094
F0.443
tp56
sF0.73
(F0.071
F0.1656
F0.071
F0.1656
tp57
sF0.055
(F0.3042
F0.0224
F0.3042
F0.0224
tp58
sF0.564
(F0.0982
F0.1214
F0.0982
F0.1214
tp59
sF0.666
(F0.0812
F0.1458
F0.0812
F0.1458
tp60
sF0.997
(F0.0058
F0.4958
F0.0058
F0.4958
tp61
sF0.808
(F0.0578
F0.1968
F0.0578
F0.1968
tp62
sF0.017
(F0.4054
F0.009
F0.4054
F0.009
tp63
sF0.966
(F0.0188
F0.3744
F0.0188
F0.3744
tp64
sF0.449
(F0.1192
F0.0992
F0.1192
F0.0992
tp65
sF0.207
(F0.185
F0.0558
F0.185
F0.0558
tp66
sF0.703
(F0.0752
F0.1564
F0.0752
F0.1564
tp67
sF0.499
(F0.1098
F0.1086
F0.1098
F0.1086
tp68
sF0.769
(F0.0644
F0.18
F0.0644
F0.18
tp69
sF0.627
(F0.088
F0.1358
F0.088
F0.1358
tp70
sF0.53
(F0.1042
F0.1144
F0.1042
F0.1144
tp71
sF0.983
(F0.0114
F0.4308
F0.0114
F0.4308
tp72
sF0.831
(F0.0538
F0.2092
F0.0538
F0.2092
tp73
sF0.377
(F0.135
F0.086
F0.135
F0.086
tp74
sF0.112
(F0.238
F0.037
F0.238
F0.037
tp75
sF0.328
(F0.147
F0.0772
F0.147
F0.0772
tp76
sF0.295
(F0.156
F0.0716
F0.156
F0.0716
tp77
sF0.692
(F0.0768
F0.1534
F0.0768
F0.1534
tp78
sF0.557
(F0.0994
F0.1196
F0.0994
F0.1196
tp79
sF0.256
(F0.1674
F0.0654
F0.1674
F0.0654
tp80
sF0.644
(F0.085
F0.1398
F0.085
F0.1398
tp81
sF0.233
(F0.175
F0.0608
F0.175
F0.0608
tp82
sF0.098
(F0.25
F0.0336
F0.25
F0.0336
tp83
sF0.583
(F0.0952
F0.1254
F0.0952
F0.1254
tp84
sF0.318
(F0.1496
F0.0756
F0.1496
F0.0756
tp85
sF0.374
(F0.136
F0.0854
F0.136
F0.0854
tp86
sF0.247
(F0.1704
F0.0636
F0.1704
F0.0636
tp87
sF0.903
(F0.0382
F0.265
F0.0382
F0.265
tp88
sF0.21
(F0.184
F0.0566
F0.184
F0.0566
tp89
sF0.173
(F0.2004
F0.0498
F0.2004
F0.0498
tp90
sF0.104
(F0.2444
F0.035
F0.2444
F0.035
tp91
sF0.908
(F0.0372
F0.2706
F0.0372
F0.2706
tp92
sF0.656
(F0.0828
F0.1432
F0.0828
F0.1432
tp93
sF0.842
(F0.0516
F0.2156
F0.0516
F0.2156
tp94
sF0.495
(F0.1104
F0.1076
F0.1104
F0.1076
tp95
sF0.075
(F0.275
F0.0278
F0.275
F0.0278
tp96
sF0.1
(F0.2484
F0.0342
F0.2484
F0.0342
tp97
sF0.367
(F0.1374
F0.0842
F0.1374
F0.0842
tp98
sF0.622
(F0.0888
F0.1342
F0.0888
F0.1342
tp99
sF0.636
(F0.086
F0.138
F0.086
F0.138
tp100
sF0.167
(F0.2034
F0.0488
F0.2034
F0.0488
tp101
sF0.446
(F0.1198
F0.0982
F0.1198
F0.0982
tp102
sF0.288
(F0.1578
F0.0706
F0.1578
F0.0706
tp103
sF0.543
(F0.102
F0.117
F0.102
F0.117
tp104
sF0.119
(F0.2326
F0.0386
F0.2326
F0.0386
tp105
sF0.987
(F0.009
F0.4478
F0.009
F0.4478
tp106
sF0.19
(F0.1924
F0.0528
F0.1924
F0.0528
tp107
sF0.059
(F0.2972
F0.0234
F0.2972
F0.0234
tp108
sF0.484
(F0.1124
F0.1056
F0.1124
F0.1056
tp109
sF0.26
(F0.166
F0.066
F0.166
F0.066
tp110
sF0.726
(F0.0716
F0.1642
F0.0716
F0.1642
tp111
sF0.46
(F0.117
F0.1012
F0.117
F0.1012
tp112
sF0.746
(F0.0684
F0.171
F0.0684
F0.171
tp113
sF0.766
(F0.0652
F0.1786
F0.0652
F0.1786
tp114
sF0.602
(F0.092
F0.1298
F0.092
F0.1298
tp115
sF0.733
(F0.0704
F0.1664
F0.0704
F0.1664
tp116
sF0.439
(F0.1214
F0.0972
F0.1214
F0.0972
tp117
sF0.416
(F0.1264
F0.0932
F0.1264
F0.0932
tp118
sF0.338
(F0.1446
F0.0788
F0.1446
F0.0788
tp119
sF0.56
(F0.099
F0.1206
F0.099
F0.1206
tp120
sF0.066
(F0.2868
F0.0254
F0.2868
F0.0254
tp121
sF0.817
(F0.056
F0.2014
F0.056
F0.2014
tp122
sF0.11
(F0.2398
F0.0364
F0.2398
F0.0364
tp123
sF0.392
(F0.1314
F0.089
F0.1314
F0.089
tp124
sF0.75
(F0.0676
F0.1724
F0.0676
F0.1724
tp125
sF0.183
(F0.1954
F0.0516
F0.1954
F0.0516
tp126
sF0.311
(F0.1516
F0.0744
F0.1516
F0.0744
tp127
sF0.36
(F0.1392
F0.0828
F0.1392
F0.0828
tp128
sF0.722
(F0.0724
F0.163
F0.0724
F0.163
tp129
sF0.146
(F0.2146
F0.0442
F0.2146
F0.0442
tp130
sF0.719
(F0.0728
F0.1616
F0.0728
F0.1616
tp131
sF0.348
(F0.1422
F0.0808
F0.1422
F0.0808
tp132
sF0.674
(F0.0798
F0.1482
F0.0798
F0.1482
tp133
sF0.405
(F0.1284
F0.0912
F0.1284
F0.0912
tp134
sF0.893
(F0.0408
F0.2548
F0.0408
F0.2548
tp135
sF0.806
(F0.0584
F0.1958
F0.0584
F0.1958
tp136
sF0.226
(F0.178
F0.0596
F0.178
F0.0596
tp137
sF0.362
(F0.1384
F0.0832
F0.1384
F0.0832
tp138
sF0.711
(F0.0742
F0.1592
F0.0742
F0.1592
tp139
sF0.932
(F0.031
F0.3032
F0.031
F0.3032
tp140
sF0.8
(F0.0592
F0.1932
F0.0592
F0.1932
tp141
sF0.22
(F0.18
F0.0586
F0.18
F0.0586
tp142
sF0.873
(F0.0452
F0.2374
F0.0452
F0.2374
tp143
sF0.562
(F0.0988
F0.1206
F0.0988
F0.1206
tp144
sF0.621
(F0.089
F0.134
F0.089
F0.134
tp145
sF0.099
(F0.2494
F0.034
F0.2494
F0.034
tp146
sF0.44
(F0.1212
F0.0972
F0.1212
F0.0972
tp147
sF0.7
(F0.0756
F0.1558
F0.0756
F0.1558
tp148
sF0.626
(F0.088
F0.135
F0.088
F0.135
tp149
sF0.072
(F0.279
F0.027
F0.279
F0.027
tp150
sF0.588
(F0.0942
F0.1264
F0.0942
F0.1264
tp151
sF0.34
(F0.1442
F0.0794
F0.1442
F0.0794
tp152
sF0.027
(F0.3692
F0.0136
F0.3692
F0.0136
tp153
sF0.652
(F0.0838
F0.1422
F0.0838
F0.1422
tp154
sF0.827
(F0.0544
F0.2068
F0.0544
F0.2068
tp155
sF0.814
(F0.0568
F0.2
F0.0568
F0.2
tp156
sF0.847
(F0.0508
F0.219
F0.0508
F0.219
tp157
sF0.322
(F0.1488
F0.0762
F0.1488
F0.0762
tp158
sF0.386
(F0.133
F0.0878
F0.133
F0.0878
tp159
sF0.116
(F0.2348
F0.0378
F0.2348
F0.0378
tp160
sF0.78
(F0.0626
F0.1844
F0.0626
F0.1844
tp161
sF0.988
(F0.0084
F0.4518
F0.0084
F0.4518
tp162
sF0.641
(F0.086
F0.139
F0.086
F0.139
tp163
sF0.645
(F0.085
F0.1402
F0.085
F0.1402
tp164
sF0.23
(F0.1762
F0.0604
F0.1762
F0.0604
tp165
sF0.261
(F0.1658
F0.0662
F0.1658
F0.0662
tp166
sF0.16
(F0.207
F0.0472
F0.207
F0.0472
tp167
sF0.574
(F0.0966
F0.1236
F0.0966
F0.1236
tp168
sF0.078
(F0.271
F0.0288
F0.271
F0.0288
tp169
sF0.968
(F0.0182
F0.3802
F0.0182
F0.3802
tp170
sF0.373
(F0.136
F0.0852
F0.136
F0.0852
tp171
sF0.122
(F0.2304
F0.039
F0.2304
F0.039
tp172
sF0.962
(F0.0206
F0.3634
F0.0206
F0.3634
tp173
sF0.289
(F0.1576
F0.0708
F0.1576
F0.0708
tp174
sF0.505
(F0.1086
F0.1096
F0.1086
F0.1096
tp175
sF0.548
(F0.1012
F0.1178
F0.1012
F0.1178
tp176
sF0.607
(F0.0912
F0.1308
F0.0912
F0.1308
tp177
sF0.582
(F0.0952
F0.1254
F0.0952
F0.1254
tp178
sF0.948
(F0.026
F0.3316
F0.026
F0.3316
tp179
sF0.657
(F0.0828
F0.1434
F0.0828
F0.1434
tp180
sF0.677
(F0.0796
F0.1486
F0.0796
F0.1486
tp181
sF0.816
(F0.0564
F0.2012
F0.0564
F0.2012
tp182
sF0.299
(F0.1548
F0.0726
F0.1548
F0.0726
tp183
sF0.933
(F0.0304
F0.3048
F0.0304
F0.3048
tp184
sF0.701
(F0.0756
F0.1562
F0.0756
F0.1562
tp185
sF0.458
(F0.1176
F0.1008
F0.1176
F0.1008
tp186
sF0.3
(F0.1548
F0.0726
F0.1548
F0.0726
tp187
sF0.929
(F0.0318
F0.2986
F0.0318
F0.2986
tp188
sF0.959
(F0.0222
F0.356
F0.0222
F0.356
tp189
sF0.037
(F0.3412
F0.017
F0.3412
F0.017
tp190
sF0.894
(F0.0408
F0.2556
F0.0408
F0.2556
tp191
sF0.488
(F0.1116
F0.1062
F0.1116
F0.1062
tp192
sF0.333
(F0.1456
F0.078
F0.1456
F0.078
tp193
sF0.835
(F0.053
F0.2114
F0.053
F0.2114
tp194
sF0.254
(F0.168
F0.065
F0.168
F0.065
tp195
sF0.339
(F0.1444
F0.0792
F0.1444
F0.0792
tp196
sF0.947
(F0.0264
F0.3296
F0.0264
F0.3296
tp197
sF0.35
(F0.1414
F0.0812
F0.1414
F0.0812
tp198
sF0.852
(F0.0498
F0.2218
F0.0498
F0.2218
tp199
sF0.923
(F0.0336
F0.29
F0.0336
F0.29
tp200
sF0.747
(F0.0684
F0.1716
F0.0684
F0.1716
tp201
sF0.42
(F0.1254
F0.0938
F0.1254
F0.0938
tp202
sF0.782
(F0.0624
F0.1854
F0.0624
F0.1854
tp203
sF0.642
(F0.085
F0.1394
F0.085
F0.1394
tp204
sF0.824
(F0.0548
F0.2052
F0.0548
F0.2052
tp205
sF0.501
(F0.1094
F0.109
F0.1094
F0.109
tp206
sF0.99
(F0.0074
F0.4612
F0.0074
F0.4612
tp207
sF0.048
(F0.3172
F0.0204
F0.3172
F0.0204
tp208
sF0.396
(F0.1304
F0.0896
F0.1304
F0.0896
tp209
sF0.759
(F0.0662
F0.1762
F0.0662
F0.1762
tp210
sF0.473
(F0.1146
F0.1036
F0.1146
F0.1036
tp211
sF0.281
(F0.1598
F0.0696
F0.1598
F0.0696
tp212
sF0.196
(F0.1898
F0.0538
F0.1898
F0.0538
tp213
sF0.593
(F0.0934
F0.1276
F0.0934
F0.1276
tp214
sF0.28
(F0.1602
F0.0696
F0.1602
F0.0696
tp215
sF0.166
(F0.2038
F0.0486
F0.2038
F0.0486
tp216
sF0.352
(F0.1412
F0.0814
F0.1412
F0.0814
tp217
sF0.258
(F0.1668
F0.0656
F0.1668
F0.0656
tp218
sF0.453
(F0.1188
F0.1
F0.1188
F0.1
tp219
sF0.309
(F0.1518
F0.0742
F0.1518
F0.0742
tp220
sF0.155
(F0.2094
F0.0462
F0.2094
F0.0462
tp221
sF0.09
(F0.2576
F0.0316
F0.2576
F0.0316
tp222
sF0.781
(F0.0626
F0.185
F0.0626
F0.185
tp223
sF0.451
(F0.1188
F0.0992
F0.1188
F0.0992
tp224
sF0.286
(F0.1584
F0.0706
F0.1584
F0.0706
tp225
sF0.409
(F0.1278
F0.092
F0.1278
F0.092
tp226
sF0.546
(F0.1012
F0.1174
F0.1012
F0.1174
tp227
sF0.958
(F0.0226
F0.3536
F0.0226
F0.3536
tp228
sF0.951
(F0.0252
F0.3382
F0.0252
F0.3382
tp229
sF0.761
(F0.0656
F0.1768
F0.0656
F0.1768
tp230
sF0.372
(F0.1362
F0.0852
F0.1362
F0.0852
tp231
sF0.13
(F0.2248
F0.0406
F0.2248
F0.0406
tp232
sF0.708
(F0.0744
F0.1582
F0.0744
F0.1582
tp233
sF0.938
(F0.029
F0.313
F0.029
F0.313
tp234
sF0.66
(F0.0822
F0.1442
F0.0822
F0.1442
tp235
sF0.553
(F0.1002
F0.1188
F0.1002
F0.1188
tp236
sF0.612
(F0.0902
F0.132
F0.0902
F0.132
tp237
sF0.135
(F0.2216
F0.0416
F0.2216
F0.0416
tp238
sF0.014
(F0.419
F0.0078
F0.419
F0.0078
tp239
sF0.828
(F0.0542
F0.2072
F0.0542
F0.2072
tp240
sF0.206
(F0.1854
F0.0558
F0.1854
F0.0558
tp241
sF0.762
(F0.0656
F0.1772
F0.0656
F0.1772
tp242
sF0.723
(F0.0724
F0.1632
F0.0724
F0.1632
tp243
sF0.524
(F0.1054
F0.1134
F0.1054
F0.1134
tp244
sF0.884
(F0.0428
F0.2466
F0.0428
F0.2466
tp245
sF0.176
(F0.1988
F0.0504
F0.1988
F0.0504
tp246
sF0.398
(F0.1304
F0.0898
F0.1304
F0.0898
tp247
sF0.743
(F0.069
F0.17
F0.069
F0.17
tp248
sF0.2
(F0.188
F0.0548
F0.188
F0.0548
tp249
sF0.223
(F0.179
F0.0592
F0.179
F0.0592
tp250
sF0.111
(F0.2388
F0.037
F0.2388
F0.037
tp251
sF0.411
(F0.1274
F0.0922
F0.1274
F0.0922
tp252
sF0.638
(F0.086
F0.1382
F0.086
F0.1382
tp253
sF0.139
(F0.219
F0.0428
F0.219
F0.0428
tp254
sF0.875
(F0.0448
F0.2388
F0.0448
F0.2388
tp255
sF0.227
(F0.1774
F0.0598
F0.1774
F0.0598
tp256
sF0.825
(F0.0548
F0.2058
F0.0548
F0.2058
tp257
sF0.882
(F0.0432
F0.245
F0.0432
F0.245
tp258
sF0.095
(F0.2528
F0.033
F0.2528
F0.033
tp259
sF0.844
(F0.0514
F0.217
F0.0514
F0.217
tp260
sF0.49
(F0.1112
F0.1066
F0.1112
F0.1066
tp261
sF0.763
(F0.0656
F0.1774
F0.0656
F0.1774
tp262
sF0.153
(F0.2106
F0.0456
F0.2106
F0.0456
tp263
sF0.506
(F0.1086
F0.1098
F0.1086
F0.1098
tp264
sF0.972
(F0.0164
F0.3922
F0.0164
F0.3922
tp265
sF0.241
(F0.172
F0.0624
F0.172
F0.0624
tp266
sF0.093
(F0.2548
F0.0326
F0.2548
F0.0326
tp267
sF0.936
(F0.0298
F0.3096
F0.0298
F0.3096
tp268
sF0.051
(F0.3114
F0.0212
F0.3114
F0.0212
tp269
sF0.678
(F0.0792
F0.1492
F0.0792
F0.1492
tp270
sF0.931
(F0.0312
F0.3018
F0.0312
F0.3018
tp271
sF0.539
(F0.1028
F0.1162
F0.1028
F0.1162
tp272
sF0.053
(F0.3078
F0.0216
F0.3078
F0.0216
tp273
sF0.979
(F0.013
F0.4156
F0.013
F0.4156
tp274
sF0.492
(F0.111
F0.107
F0.111
F0.107
tp275
sF0.203
(F0.1868
F0.0554
F0.1868
F0.0554
tp276
sF0.998
(F0.0058
F0.4988
F0.0058
F0.4988
tp277
sF0.468
(F0.1158
F0.1026
F0.1158
F0.1026
tp278
sF0.616
(F0.0894
F0.133
F0.0894
F0.133
tp279
sF0.298
(F0.155
F0.0724
F0.155
F0.0724
tp280
sF0.81
(F0.0578
F0.198
F0.0578
F0.198
tp281
sF0.565
(F0.0982
F0.1216
F0.0982
F0.1216
tp282
sF0.391
(F0.132
F0.0886
F0.132
F0.0886
tp283
sF0.376
(F0.1354
F0.086
F0.1354
F0.086
tp284
sF0.751
(F0.0676
F0.1728
F0.0676
F0.1728
tp285
sF0.424
(F0.1244
F0.0942
F0.1244
F0.0942
tp286
sF0.742
(F0.0692
F0.1696
F0.0692
F0.1696
tp287
sF0.083
(F0.2656
F0.0298
F0.2656
F0.0298
tp288
sF0.79
(F0.0612
F0.1886
F0.0612
F0.1886
tp289
sF0.4
(F0.1296
F0.0904
F0.1296
F0.0904
tp290
sF0.312
(F0.151
F0.0746
F0.151
F0.0746
tp291
sF0.939
(F0.0288
F0.3148
F0.0288
F0.3148
tp292
sF0.349
(F0.1416
F0.0808
F0.1416
F0.0808
tp293
sF0.039
(F0.3364
F0.0176
F0.3364
F0.0176
tp294
sF0.905
(F0.038
F0.267
F0.038
F0.267
tp295
sF0.481
(F0.113
F0.1048
F0.113
F0.1048
tp296
sF0.77
(F0.0644
F0.1802
F0.0644
F0.1802
tp297
sF0.755
(F0.067
F0.1744
F0.067
F0.1744
tp298
sF0.202
(F0.187
F0.055
F0.187
F0.055
tp299
sF0.062
(F0.293
F0.0242
F0.293
F0.0242
tp300
sF0.129
(F0.2256
F0.0406
F0.2256
F0.0406
tp301
sF0.885
(F0.0426
F0.2474
F0.0426
F0.2474
tp302
sF0.275
(F0.1614
F0.0684
F0.1614
F0.0684
tp303
sF0.413
(F0.127
F0.0926
F0.127
F0.0926
tp304
sF0.594
(F0.0934
F0.1276
F0.0934
F0.1276
tp305
sF0.525
(F0.105
F0.1134
F0.105
F0.1134
tp306
sF0.163
(F0.2054
F0.0478
F0.2054
F0.0478
tp307
sF0.952
(F0.0248
F0.3402
F0.0248
F0.3402
tp308
sF0.739
(F0.0694
F0.1686
F0.0694
F0.1686
tp309
sF0.063
(F0.2912
F0.0244
F0.2912
F0.0244
tp310
sF0.389
(F0.1324
F0.0882
F0.1324
F0.0882
tp311
sF0.107
(F0.242
F0.0358
F0.242
F0.0358
tp312
sF0.08
(F0.269
F0.0292
F0.269
F0.0292
tp313
sF0.865
(F0.0468
F0.2314
F0.0468
F0.2314
tp314
sF0.217
(F0.1812
F0.0578
F0.1812
F0.0578
tp315
sF0.177
(F0.1984
F0.0508
F0.1984
F0.0508
tp316
sF0.096
(F0.2518
F0.0332
F0.2518
F0.0332
tp317
sF0.351
(F0.1414
F0.0812
F0.1414
F0.0812
tp318
sF0.668
(F0.081
F0.1462
F0.081
F0.1462
tp319
sF0.637
(F0.086
F0.138
F0.086
F0.138
tp320
sF0.845
(F0.0512
F0.2176
F0.0512
F0.2176
tp321
sF0.117
(F0.2342
F0.038
F0.2342
F0.038
tp322
sF0.469
(F0.1154
F0.1026
F0.1154
F0.1026
tp323
sF0.864
(F0.0472
F0.2306
F0.0472
F0.2306
tp324
sF0.463
(F0.1166
F0.1016
F0.1166
F0.1016
tp325
sF0.43
(F0.1232
F0.0954
F0.1232
F0.0954
tp326
sF0.18
(F0.1968
F0.051
F0.1968
F0.051
tp327
sF0.489
(F0.1114
F0.1064
F0.1114
F0.1064
tp328
sF0.654
(F0.0836
F0.1424
F0.0836
F0.1424
tp329
sF0.532
(F0.1038
F0.1148
F0.1038
F0.1148
tp330
sF0.617
(F0.0892
F0.133
F0.0892
F0.133
tp331
sF0.579
(F0.0958
F0.1244
F0.0958
F0.1244
tp332
sF0.799
(F0.0594
F0.1926
F0.0594
F0.1926
tp333
sF0.012
(F0.4284
F0.0066
F0.4284
F0.0066
tp334
sF0.034
(F0.3488
F0.0162
F0.3488
F0.0162
tp335
sF0.197
(F0.189
F0.0542
F0.189
F0.0542
tp336
sF0.744
(F0.0688
F0.1704
F0.0688
F0.1704
tp337
sF0.569
(F0.0976
F0.1226
F0.0976
F0.1226
tp338
sF0.776
(F0.0634
F0.1828
F0.0634
F0.1828
tp339
sF0.94
(F0.0286
F0.3166
F0.0286
F0.3166
tp340
sF0.949
(F0.0258
F0.3338
F0.0258
F0.3338
tp341
sF0.143
(F0.2166
F0.0436
F0.2166
F0.0436
tp342
sF0.521
(F0.1056
F0.1128
F0.1056
F0.1128
tp343
sF0.752
(F0.0674
F0.1732
F0.0674
F0.1732
tp344
sF0.511
(F0.1076
F0.1108
F0.1076
F0.1108
tp345
sF0.57
(F0.0972
F0.1226
F0.0972
F0.1226
tp346
sF0.331
(F0.1464
F0.0778
F0.1464
F0.0778
tp347
sF0.876
(F0.0446
F0.2398
F0.0446
F0.2398
tp348
sF0.384
(F0.1334
F0.0874
F0.1334
F0.0874
tp349
sF0.04
(F0.334
F0.0176
F0.334
F0.0176
tp350
sF0.084
(F0.2646
F0.03
F0.2646
F0.03
tp351
sF0.51
(F0.1076
F0.1104
F0.1076
F0.1104
tp352
sF0.252
(F0.1688
F0.0644
F0.1688
F0.0644
tp353
sF0.086
(F0.2624
F0.0308
F0.2624
F0.0308
tp354
sF0.068
(F0.284
F0.0258
F0.284
F0.0258
tp355
sF0.659
(F0.0826
F0.1438
F0.0826
F0.1438
tp356
sF0.906
(F0.0376
F0.2684
F0.0376
F0.2684
tp357
sF0.056
(F0.3024
F0.0226
F0.3024
F0.0226
tp358
sF0.925
(F0.0332
F0.2928
F0.0332
F0.2928
tp359
sF0.187
(F0.1938
F0.0524
F0.1938
F0.0524
tp360
sF0.371
(F0.1364
F0.085
F0.1364
F0.085
tp361
sF0.15
(F0.2122
F0.0452
F0.2122
F0.0452
tp362
sF0.248
(F0.17
F0.0638
F0.17
F0.0638
tp363
sF0.067
(F0.2854
F0.0254
F0.2854
F0.0254
tp364
sF0.238
(F0.1736
F0.0618
F0.1736
F0.0618
tp365
sF0.624
(F0.0884
F0.135
F0.0884
F0.135
tp366
sF0.886
(F0.0426
F0.2484
F0.0426
F0.2484
tp367
sF0.428
(F0.1236
F0.0952
F0.1236
F0.0952
tp368
sF0.14
(F0.2182
F0.043
F0.2182
F0.043
tp369
sF0.589
(F0.0942
F0.1266
F0.0942
F0.1266
tp370
sF0.848
(F0.0504
F0.2194
F0.0504
F0.2194
tp371
sF0.866
(F0.0468
F0.2322
F0.0468
F0.2322
tp372
sF0.613
(F0.0902
F0.1322
F0.0902
F0.1322
tp373
sF0.297
(F0.1554
F0.0722
F0.1554
F0.0722
tp374
sF0.887
(F0.0422
F0.249
F0.0422
F0.249
tp375
sF0.218
(F0.181
F0.0582
F0.181
F0.0582
tp376
sF0.081
(F0.268
F0.0298
F0.268
F0.0298
tp377
sF0.485
(F0.112
F0.1058
F0.112
F0.1058
tp378
sF0.114
(F0.2364
F0.0374
F0.2364
F0.0374
tp379
sF0.461
(F0.1168
F0.1012
F0.1168
F0.1012
tp380
sF0.727
(F0.0714
F0.1646
F0.0714
F0.1646
tp381
sF0.403
(F0.1294
F0.0906
F0.1294
F0.0906
tp382
sF0.37
(F0.1368
F0.0848
F0.1368
F0.0848
tp383
sF0.174
(F0.2
F0.05
F0.2
F0.05
tp384
sF0.417
(F0.1262
F0.0932
F0.1262
F0.0932
tp385
sF0.977
(F0.0142
F0.4084
F0.0142
F0.4084
tp386
sF0.792
(F0.0608
F0.1896
F0.0608
F0.1896
tp387
sF0.026
(F0.3722
F0.013
F0.3722
F0.013
tp388
sF0.393
(F0.1314
F0.089
F0.1314
F0.089
tp389
sF0.549
(F0.1008
F0.118
F0.1008
F0.118
tp390
sF0.608
(F0.0912
F0.131
F0.0912
F0.131
tp391
sF0.95
(F0.0254
F0.3358
F0.0254
F0.3358
tp392
sF0.257
(F0.1668
F0.0656
F0.1668
F0.0656
tp393
sF0.204
(F0.1862
F0.0558
F0.1862
F0.0558
tp394
sF0.969
(F0.0178
F0.3828
F0.0178
F0.3828
tp395
sF0.234
(F0.175
F0.0612
F0.175
F0.0612
tp396
sF0.635
(F0.0866
F0.1376
F0.0866
F0.1376
tp397
sF0.192
(F0.1918
F0.0532
F0.1918
F0.0532
tp398
sF0.269
(F0.1632
F0.0676
F0.1632
F0.0676
tp399
sF0.772
(F0.064
F0.1812
F0.064
F0.1812
tp400
sF0.655
(F0.083
F0.1426
F0.083
F0.1426
tp401
sF0.01
(F0.4388
F0.0054
F0.4388
F0.0054
tp402
sF0.516
(F0.1066
F0.1116
F0.1066
F0.1116
tp403
sF0.575
(F0.0964
F0.1238
F0.0964
F0.1238
tp404
sF0.124
(F0.2288
F0.0394
F0.2288
F0.0394
tp405
sF0.211
(F0.1834
F0.0568
F0.1834
F0.0568
tp406
sF0.889
(F0.0418
F0.251
F0.0418
F0.251
tp407
sF0.154
(F0.2096
F0.0458
F0.2096
F0.0458
tp408
sF0.442
(F0.1206
F0.0976
F0.1206
F0.0976
tp409
sF0.926
(F0.0326
F0.294
F0.0326
F0.294
tp410
sF0.427
(F0.124
F0.0952
F0.124
F0.0952
tp411
sF0.935
(F0.0298
F0.3082
F0.0298
F0.3082
tp412
sF0.171
(F0.2014
F0.0494
F0.2014
F0.0494
tp413
sF0.675
(F0.0798
F0.1482
F0.0798
F0.1482
tp414
sF0.702
(F0.0754
F0.1562
F0.0754
F0.1562
tp415
sF0.271
(F0.1628
F0.0678
F0.1628
F0.0678
tp416
sF0.363
(F0.1384
F0.0836
F0.1384
F0.0836
tp417
sF0.242
(F0.172
F0.0626
F0.172
F0.0626
tp418
sF0.529
(F0.1044
F0.1144
F0.1044
F0.1144
tp419
sF0.891
(F0.0416
F0.253
F0.0416
F0.253
tp420
sF0.9
(F0.0392
F0.262
F0.0392
F0.262
tp421
sF0.284
(F0.159
F0.0698
F0.159
F0.0698
tp422
sF0.535
(F0.1032
F0.1154
F0.1032
F0.1154
tp423
sF0.134
(F0.222
F0.0414
F0.222
F0.0414
tp424
sF0.566
(F0.098
F0.1216
F0.098
F0.1216
tp425
sF0.895
(F0.0406
F0.2566
F0.0406
F0.2566
tp426
sF0.749
(F0.068
F0.1722
F0.068
F0.1722
tp427
sF0.518
(F0.1064
F0.112
F0.1064
F0.112
tp428
sF0.285
(F0.1588
F0.07
F0.1588
F0.07
tp429
sF0.457
(F0.1178
F0.1004
F0.1178
F0.1004
tp430
sF0.188
(F0.193
F0.0528
F0.193
F0.0528
tp431
sF0.639
(F0.086
F0.1386
F0.086
F0.1386
tp432
sF0.802
(F0.0588
F0.1942
F0.0588
F0.1942
tp433
sF0.716
(F0.0734
F0.1608
F0.0734
F0.1608
tp434
sF0.319
(F0.1492
F0.0758
F0.1492
F0.0758
tp435
sF0.48
(F0.1132
F0.1048
F0.1132
F0.1048
tp436
sF0.611
(F0.0904
F0.1318
F0.0904
F0.1318
tp437
sF0.17
(F0.2018
F0.0494
F0.2018
F0.0494
tp438
sF0.971
(F0.017
F0.3888
F0.017
F0.3888
tp439
sF0.343
(F0.1434
F0.0798
F0.1434
F0.0798
tp440
sF0.435
(F0.1222
F0.0962
F0.1222
F0.0962
tp441
sF0.266
(F0.164
F0.067
F0.164
F0.067
tp442
sF0.317
(F0.1498
F0.0754
F0.1498
F0.0754
tp443
sF0.307
(F0.1528
F0.0736
F0.1528
F0.0736
tp444
sF0.184
(F0.1948
F0.0518
F0.1948
F0.0518
tp445
sF0.294
(F0.156
F0.0716
F0.156
F0.0716
tp446
sF0.264
(F0.1648
F0.0664
F0.1648
F0.0664
tp447
sF0.356
(F0.1402
F0.0822
F0.1402
F0.0822
tp448
sF0.554
(F0.1
F0.1192
F0.1
F0.1192
tp449
sF0.235
(F0.1748
F0.0614
F0.1748
F0.0614
tp450
sF0.364
(F0.1382
F0.0836
F0.1382
F0.0836
tp451
sF0.756
(F0.0666
F0.1748
F0.0666
F0.1748
tp452
sF0.064
(F0.2898
F0.0248
F0.2898
F0.0248
tp453
sF0.515
(F0.1066
F0.1114
F0.1066
F0.1114
tp454
sF0.651
(F0.0838
F0.1416
F0.0838
F0.1416
tp455
sF0.101
(F0.2474
F0.0344
F0.2474
F0.0344
tp456
sF0.224
(F0.1786
F0.0594
F0.1786
F0.0594
tp457
sF0.58
(F0.0958
F0.1248
F0.0958
F0.1248
tp458
sF0.465
(F0.1162
F0.1018
F0.1162
F0.1018
tp459
sF0.671
(F0.0804
F0.1472
F0.0804
F0.1472
tp460
sF0.663
(F0.0818
F0.145
F0.0818
F0.145
tp461
sF0.846
(F0.051
F0.218
F0.051
F0.218
tp462
sF0.148
(F0.2134
F0.0446
F0.2134
F0.0446
tp463
sF0.916
(F0.0354
F0.2804
F0.0354
F0.2804
tp464
sF0.687
(F0.0778
F0.1516
F0.0778
F0.1516
tp465
sF0.228
(F0.177
F0.06
F0.177
F0.06
tp466
sF0.421
(F0.1254
F0.0942
F0.1254
F0.0942
tp467
sF0.877
(F0.044
F0.2408
F0.044
F0.2408
tp468
sF0.33
(F0.1466
F0.0776
F0.1466
F0.0776
tp469
sF0.397
(F0.1304
F0.0896
F0.1304
F0.0896
tp470
sF0.818
(F0.0558
F0.2022
F0.0558
F0.2022
tp471
sF0.118
(F0.2332
F0.0384
F0.2332
F0.0384
tp472
sF0.336
(F0.145
F0.0788
F0.145
F0.0788
tp473
sF0.303
(F0.1538
F0.0732
F0.1538
F0.0732
tp474
sF0.741
(F0.0692
F0.1694
F0.0692
F0.1694
tp475
sF0.857
(F0.0488
F0.2254
F0.0488
F0.2254
tp476
sF0.002
(F0.4896
F0.0032
F0.4896
F0.0032
tp477
sF0.713
(F0.0738
F0.1598
F0.0738
F0.1598
tp478
sF0.128
(F0.2262
F0.0404
F0.2262
F0.0404
tp479
sF0.382
(F0.134
F0.0872
F0.134
F0.0872
tp480
sF0.474
(F0.1146
F0.1036
F0.1146
F0.1036
tp481
sF0.54
(F0.1026
F0.1164
F0.1026
F0.1164
tp482
sF0.822
(F0.0554
F0.2042
F0.0554
F0.2042
tp483
sF0.337
(F0.1448
F0.0788
F0.1448
F0.0788
tp484
sF0.194
(F0.1908
F0.0538
F0.1908
F0.0538
tp485
sF0.314
(F0.1508
F0.075
F0.1508
F0.075
tp486
sF0.803
(F0.0588
F0.1946
F0.0588
F0.1946
tp487
sF0.158
(F0.2076
F0.0468
F0.2076
F0.0468
tp488
sF0.245
(F0.171
F0.0632
F0.171
F0.0632
tp489
sF0.291
(F0.157
F0.0714
F0.157
F0.0714
tp490
sF0.993
(F0.0062
F0.4762
F0.0062
F0.4762
tp491
sF0.537
(F0.1028
F0.1158
F0.1028
F0.1158
tp492
sF0.676
(F0.0798
F0.1484
F0.0798
F0.1484
tp493
sF0.783
(F0.0624
F0.1858
F0.0624
F0.1858
tp494
sF0.599
(F0.0924
F0.129
F0.0924
F0.129
tp495
sF0.341
(F0.1438
F0.0796
F0.1438
F0.0796
tp496
sF0.982
(F0.0118
F0.4268
F0.0118
F0.4268
tp497
sF0.699
(F0.0762
F0.1552
F0.0762
F0.1552
tp498
sF0.851
(F0.05
F0.2214
F0.05
F0.2214
tp499
sF0.358
(F0.1394
F0.0824
F0.1394
F0.0824
tp500
sF0.454
(F0.1184
F0.1002
F0.1184
F0.1002
tp501
sF0.074
(F0.276
F0.0278
F0.276
F0.0278
tp502
sF0.937
(F0.0296
F0.3112
F0.0296
F0.3112
tp503
sF0.008
(F0.45
F0.005
F0.45
F0.005
tp504
sF0.375
(F0.1354
F0.086
F0.1354
F0.086
tp505
sF0.724
(F0.0718
F0.1634
F0.0718
F0.1634
tp506
sF0.919
(F0.0348
F0.2844
F0.0348
F0.2844
tp507
sF0.688
(F0.0774
F0.152
F0.0774
F0.152
tp508
sF0.25
(F0.1698
F0.064
F0.1698
F0.064
tp509
sF0.526
(F0.1048
F0.1138
F0.1048
F0.1138
tp510
sF0.049
(F0.3152
F0.0204
F0.3152
F0.0204
tp511
sF0.697
(F0.0764
F0.155
F0.0764
F0.155
tp512
sF0.917
(F0.0352
F0.2822
F0.0352
F0.2822
tp513
sF0.717
(F0.073
F0.1614
F0.073
F0.1614
tp514
sF0.704
(F0.0752
F0.1572
F0.0752
F0.1572
tp515
sF0.071
(F0.28
F0.0266
F0.28
F0.0266
tp516
sF0.853
(F0.0496
F0.2228
F0.0496
F0.2228
tp517
sF0.862
(F0.0474
F0.2292
F0.0474
F0.2292
tp518
sF0.559
(F0.0992
F0.1202
F0.0992
F0.1202
tp519
sF0.618
(F0.0892
F0.1334
F0.0892
F0.1334
tp520
sF0.922
(F0.0338
F0.2886
F0.0338
F0.2886
tp521
sF0.897
(F0.04
F0.259
F0.04
F0.259
tp522
sF0.924
(F0.0334
F0.2916
F0.0334
F0.2916
tp523
sF0.504
(F0.1088
F0.1094
F0.1088
F0.1094
tp524
sF0.159
(F0.2074
F0.047
F0.2074
F0.047
tp525
sF0.334
(F0.1456
F0.0784
F0.1456
F0.0784
tp526
sF0.06
(F0.296
F0.0236
F0.296
F0.0236
tp527
sF0.065
(F0.2884
F0.025
F0.2884
F0.025
tp528
sF0.092
(F0.2558
F0.0322
F0.2558
F0.0322
tp529
sF0.368
(F0.1372
F0.0844
F0.1372
F0.0844
tp530
sF0.669
(F0.0808
F0.1466
F0.0808
F0.1466
tp531
sF0.109
(F0.2404
F0.0362
F0.2404
F0.0362
tp532
sF0.811
(F0.0576
F0.1986
F0.0576
F0.1986
tp533
sF0.973
(F0.016
F0.3954
F0.016
F0.3954
tp534
sF0.181
(F0.1964
F0.051
F0.1964
F0.051
tp535
sF0.478
(F0.1136
F0.1046
F0.1136
F0.1046
tp536
sF0.507
(F0.1084
F0.11
F0.1084
F0.11
tp537
sF0.036
(F0.3436
F0.0166
F0.3436
F0.0166
tp538
sF0.447
(F0.1198
F0.0988
F0.1198
F0.0988
tp539
sF0.369
(F0.1372
F0.0846
F0.1372
F0.0846
tp540
sF0.672
(F0.08
F0.1472
F0.08
F0.1472
tp541
sF0.995
(F0.0058
F0.4868
F0.0058
F0.4868
tp542
sF0.425
(F0.1242
F0.0946
F0.1242
F0.0946
tp543
sF0.401
(F0.1294
F0.0904
F0.1294
F0.0904
tp544
sF0.278
(F0.1604
F0.069
F0.1604
F0.069
tp545
sF0.032
(F0.3542
F0.0152
F0.3542
F0.0152
tp546
sF0.981
(F0.012
F0.423
F0.012
F0.423
tp547
sF0.684
(F0.0782
F0.1506
F0.0782
F0.1506
tp548
sF0.105
(F0.2438
F0.0354
F0.2438
F0.0354
tp549
sF0.784
(F0.0622
F0.186
F0.0622
F0.186
tp550
sF0.992
(F0.0066
F0.4714
F0.0066
F0.4714
tp551
sF0.545
(F0.1014
F0.1174
F0.1014
F0.1174
tp552
sF0.604
(F0.0916
F0.1304
F0.0916
F0.1304
tp553
sF0.753
(F0.0674
F0.1736
F0.0674
F0.1736
tp554
sF0.721
(F0.0726
F0.1626
F0.0726
F0.1626
tp555
sF0.019
(F0.3972
F0.01
F0.3972
F0.01
tp556
sF0.329
(F0.1466
F0.0774
F0.1466
F0.0774
tp557
sF0.764
(F0.0654
F0.178
F0.0654
F0.178
tp558
sF0.927
(F0.0324
F0.2958
F0.0324
F0.2958
tp559
sF0.673
(F0.08
F0.1476
F0.08
F0.1476
tp560
sF0.714
(F0.0734
F0.1602
F0.0734
F0.1602
tp561
sF0.346
(F0.1424
F0.0804
F0.1424
F0.0804
tp562
sF0.394
(F0.1314
F0.0892
F0.1314
F0.0892
tp563
sF0.361
(F0.139
F0.083
F0.139
F0.083
tp564
sF0.018
(F0.4014
F0.0096
F0.4014
F0.0096
tp565
sF0.585
(F0.0948
F0.126
F0.0948
F0.126
tp566
sF0.907
(F0.0374
F0.2696
F0.0374
F0.2696
tp567
sF0.255
(F0.1678
F0.065
F0.1678
F0.065
tp568
sF0.07
(F0.2818
F0.0264
F0.2818
F0.0264
tp569
sF0.282
(F0.1594
F0.0696
F0.1594
F0.0696
tp570
sF0.471
(F0.115
F0.103
F0.115
F0.103
tp571
sF0.057
(F0.3008
F0.0228
F0.3008
F0.0228
tp572
sF0.868
(F0.0462
F0.2334
F0.0462
F0.2334
tp573
sF0.191
(F0.1918
F0.053
F0.1918
F0.053
tp574
sF0.077
(F0.272
F0.0288
F0.272
F0.0288
tp575
sF0.965
(F0.0192
F0.3714
F0.0192
F0.3714
tp576
sF0.858
(F0.0484
F0.2262
F0.0484
F0.2262
tp577
sF0.121
(F0.231
F0.0386
F0.231
F0.0386
tp578
sF0.623
(F0.0884
F0.1348
F0.0884
F0.1348
tp579
sF0.355
(F0.1404
F0.0818
F0.1404
F0.0818
tp580
sF0.628
(F0.0878
F0.136
F0.0878
F0.136
tp581
sF0.205
(F0.186
F0.0558
F0.186
F0.0558
tp582
sF0.64
(F0.086
F0.1386
F0.086
F0.1386
tp583
sF0.306
(F0.1528
F0.0736
F0.1528
F0.0736
tp584
sF0.773
(F0.0638
F0.1812
F0.0638
F0.1812
tp585
sF0.379
(F0.1346
F0.0866
F0.1346
F0.0866
tp586
sF0.041
(F0.3316
F0.0178
F0.3316
F0.0178
tp587
sF0.59
(F0.094
F0.1268
F0.094
F0.1268
tp588
sF0.466
(F0.1158
F0.1022
F0.1158
F0.1022
tp589
sF0.085
(F0.2634
F0.0308
F0.2634
F0.0308
tp590
sF0.648
(F0.084
F0.141
F0.084
F0.141
tp591
sF0.357
(F0.14
F0.0824
F0.14
F0.0824
tp592
sF0.387
(F0.1328
F0.088
F0.1328
F0.088
tp593
sF0.479
(F0.1136
F0.1046
F0.1136
F0.1046
tp594
sF0.943
(F0.0278
F0.322
F0.0278
F0.322
tp595
sF0.436
(F0.122
F0.0964
F0.122
F0.0964
tp596
sF0.823
(F0.0548
F0.2046
F0.0548
F0.2046
tp597
sF0.718
(F0.0728
F0.1616
F0.0728
F0.1616
tp598
sF0.793
(F0.0606
F0.1902
F0.0606
F0.1902
tp599
sF0.133
(F0.2228
F0.0414
F0.2228
F0.0414
tp600
sF0.738
(F0.0696
F0.1684
F0.0696
F0.1684
tp601
sF0.308
(F0.1522
F0.074
F0.1522
F0.074
tp602
sF0.512
(F0.1076
F0.111
F0.1076
F0.111
tp603
sF0.508
(F0.1084
F0.11
F0.1084
F0.11
tp604
sF0.102
(F0.2464
F0.0346
F0.2464
F0.0346
tp605
sF0.819
(F0.0558
F0.2024
F0.0558
F0.2024
tp606
sF0.98
(F0.0128
F0.4192
F0.0128
F0.4192
tp607
sF0.754
(F0.0672
F0.174
F0.0672
F0.174
tp608
sF0.826
(F0.0548
F0.2062
F0.0548
F0.2062
tp609
sF0.496
(F0.1102
F0.108
F0.1102
F0.108
tp610
sF0.05
(F0.3132
F0.0208
F0.3132
F0.0208
tp611
sF0.609
(F0.0906
F0.1312
F0.0906
F0.1312
tp612
sF0.381
(F0.1342
F0.087
F0.1342
F0.087
tp613
sF0.221
(F0.18
F0.0586
F0.18
F0.0586
tp614
sF0.928
(F0.0322
F0.2972
F0.0322
F0.2972
tp615
sF0.201
(F0.1876
F0.0548
F0.1876
F0.0548
tp616
sF0.976
(F0.0146
F0.4052
F0.0146
F0.4052
tp617
sF0.838
(F0.0526
F0.2132
F0.0526
F0.2132
tp618
sF0.164
(F0.2048
F0.0482
F0.2048
F0.0482
tp619
sF0.517
(F0.1066
F0.1118
F0.1066
F0.1118
tp620
sF0.144
(F0.2156
F0.0438
F0.2156
F0.0438
tp621
sF0.653
(F0.0838
F0.1424
F0.0838
F0.1424
tp622
sF0.304
(F0.1534
F0.0734
F0.1534
F0.0734
tp623
sF0.305
(F0.153
F0.0734
F0.153
F0.0734
tp624
sF0.798
(F0.0596
F0.1922
F0.0596
F0.1922
tp625
sF0.089
(F0.259
F0.0316
F0.259
F0.0316
tp626
sF0.74
(F0.0694
F0.169
F0.0694
F0.169
tp627
sF0.023
(F0.3822
F0.0116
F0.3822
F0.0116
tp628
sF0.38
(F0.1344
F0.0866
F0.1344
F0.0866
tp629
sF0.347
(F0.1424
F0.0806
F0.1424
F0.0806
tp630
sF0.869
(F0.0458
F0.2344
F0.0458
F0.2344
tp631
sF0.486
(F0.1118
F0.1058
F0.1118
F0.1058
tp632
sF0.888
(F0.042
F0.25
F0.042
F0.25
tp633
sF0.277
(F0.161
F0.069
F0.161
F0.069
tp634
sF0.426
(F0.124
F0.095
F0.124
F0.095
tp635
sF0.65
(F0.0838
F0.1412
F0.0838
F0.1412
tp636
sF0.157
(F0.2084
F0.0466
F0.2084
F0.0466
tp637
sF0.681
(F0.0788
F0.15
F0.0788
F0.15
tp638
sF0.147
(F0.2136
F0.0442
F0.2136
F0.0442
tp639
sF0.418
(F0.1258
F0.0932
F0.1258
F0.0932
tp640
sF0.694
(F0.0768
F0.1538
F0.0768
F0.1538
tp641
sF0.536
(F0.1032
F0.1154
F0.1032
F0.1154
tp642
sF0.045
(F0.323
F0.0194
F0.323
F0.0194
tp643
sF0.67
(F0.0808
F0.147
F0.0808
F0.147
tp644
sF0.082
(F0.2666
F0.0298
F0.2666
F0.0298
tp645
sF0.96
(F0.0218
F0.3584
F0.0218
F0.3584
tp646
sF0.345
(F0.1428
F0.0804
F0.1428
F0.0804
tp647
sF0.963
(F0.0202
F0.3662
F0.0202
F0.3662
tp648
sF0.327
(F0.1472
F0.0772
F0.1472
F0.0772
tp649
sF0.775
(F0.0634
F0.1822
F0.0634
F0.1822
tp650
sF0.794
(F0.0606
F0.1904
F0.0606
F0.1904
tp651
sF0.534
(F0.1036
F0.1152
F0.1036
F0.1152
tp652
sF0.137
(F0.22
F0.0422
F0.22
F0.0422
tp653
sF0.498
(F0.1098
F0.108
F0.1098
F0.108
tp654
sF0.407
(F0.1284
F0.0914
F0.1284
F0.0914
tp655
sF0.325
(F0.1476
F0.0768
F0.1476
F0.0768
tp656
sF0.629
(F0.0878
F0.136
F0.0878
F0.136
tp657
sF0.047
(F0.3192
F0.02
F0.3192
F0.02
tp658
sF0.571
(F0.0972
F0.1228
F0.0972
F0.1228
tp659
sF0.649
(F0.084
F0.1412
F0.084
F0.1412
tp660
sF0.991
(F0.007
F0.466
F0.007
F0.466
tp661
sF0.302
(F0.1538
F0.0728
F0.1538
F0.0728
tp662
sF0.239
(F0.173
F0.062
F0.173
F0.062
tp663
sF0.419
(F0.1254
F0.0934
F0.1254
F0.0934
tp664
sF0.555
(F0.0998
F0.1196
F0.0998
F0.1196
tp665
sF0.054
(F0.3058
F0.022
F0.3058
F0.022
tp666
sF0.915
(F0.0356
F0.2794
F0.0356
F0.2794
tp667
sF0.215
(F0.182
F0.0576
F0.182
F0.0576
tp668
sF0.898
(F0.0396
F0.26
F0.0396
F0.26
tp669
sF0.879
(F0.0438
F0.2422
F0.0438
F0.2422
tp670
sF0.315
(F0.1504
F0.0752
F0.1504
F0.0752
tp671
sF0.522
(F0.1056
F0.1128
F0.1056
F0.1128
tp672
sF0.909
(F0.0372
F0.272
F0.0372
F0.272
tp673
sF0.232
(F0.1758
F0.0608
F0.1758
F0.0608
tp674
sF0.544
(F0.1018
F0.1174
F0.1018
F0.1174
tp675
sF0.878
(F0.0438
F0.2414
F0.0438
F0.2414
tp676
sF0.52
(F0.1056
F0.1124
F0.1056
F0.1124
tp677
sF0.178
(F0.1976
F0.0508
F0.1976
F0.0508
tp678
sF0.005
(F0.469
F0.0036
F0.469
F0.0036
tp679
sF0.287
(F0.158
F0.0706
F0.158
F0.0706
tp680
sF0.839
(F0.0522
F0.2142
F0.0522
F0.2142
tp681
sF0.999
(F0.0058
F0.5
F0.0058
F0.5
tp682
sF0.509
(F0.1078
F0.1102
F0.1078
F0.1102
tp683
sF0.195
(F0.19
F0.0538
F0.19
F0.0538
tp684
sF0.399
(F0.1304
F0.0902
F0.1304
F0.0902
tp685
sF0.491
(F0.1112
F0.107
F0.1112
F0.107
tp686
sF0.444
(F0.1204
F0.0982
F0.1204
F0.0982
tp687
sF0.141
(F0.2176
F0.0432
F0.2176
F0.0432
tp688
sF0.414
(F0.1268
F0.0926
F0.1268
F0.0926
tp689
sF0.464
(F0.1166
F0.1018
F0.1166
F0.1018
tp690
sF0.541
(F0.1022
F0.1166
F0.1022
F0.1166
tp691
sF0.6
(F0.0924
F0.1292
F0.0924
F0.1292
tp692
sF0.748
(F0.068
F0.1718
F0.068
F0.1718
tp693
sF0.316
(F0.15
F0.0752
F0.15
F0.0752
tp694
sF0.97
(F0.0176
F0.386
F0.0176
F0.386
tp695
sF0.198
(F0.1888
F0.0544
F0.1888
F0.0544
tp696
sF0.978
(F0.0138
F0.4124
F0.0138
F0.4124
tp697
sF0.789
(F0.0614
F0.1884
F0.0614
F0.1884
tp698
sF0.161
(F0.2064
F0.0476
F0.2064
F0.0476
tp699
sF0.765
(F0.0652
F0.1782
F0.0652
F0.1782
tp700
sF0.249
(F0.1698
F0.0638
F0.1698
F0.0638
tp701
sF0.127
(F0.2268
F0.0402
F0.2268
F0.0402
tp702
sF0.567
(F0.098
F0.122
F0.098
F0.122
tp703
sF0.212
(F0.183
F0.057
F0.183
F0.057
tp704
sF0.918
(F0.035
F0.2834
F0.035
F0.2834
tp705
sF0.737
(F0.0698
F0.168
F0.0698
F0.168
tp706
sF0.175
(F0.1994
F0.0502
F0.1994
F0.0502
tp707
sF0.804
(F0.0588
F0.1948
F0.0588
F0.1948
tp708
sF0.246
(F0.171
F0.0634
F0.171
F0.0634
tp709
sF0.745
(F0.0686
F0.1708
F0.0686
F0.1708
tp710
sF0.438
(F0.1216
F0.0972
F0.1216
F0.0972
tp711
sF0.422
(F0.125
F0.0942
F0.125
F0.0942
tp712
sF0.913
(F0.0362
F0.277
F0.0362
F0.277
tp713
sF0.706
(F0.075
F0.1574
F0.075
F0.1574
tp714
sF0.601
(F0.0922
F0.1294
F0.0922
F0.1294
tp715
sF0.069
(F0.2828
F0.026
F0.2828
F0.026
tp716
sF0.82
(F0.0558
F0.2032
F0.0558
F0.2032
tp717
sF0.872
(F0.0454
F0.2366
F0.0454
F0.2366
tp718
sF0.267
(F0.1638
F0.067
F0.1638
F0.067
tp719
sF0.359
(F0.1394
F0.0828
F0.1394
F0.0828
tp720
sF0.035
(F0.3462
F0.0164
F0.3462
F0.0164
tp721
sF0.84
(F0.0522
F0.2144
F0.0522
F0.2144
tp722
sF0.209
(F0.1842
F0.0566
F0.1842
F0.0566
tp723
sF0.665
(F0.0814
F0.1456
F0.0814
F0.1456
tp724
sF0.899
(F0.0392
F0.261
F0.0392
F0.261
tp725
sF0.771
(F0.0642
F0.1808
F0.0642
F0.1808
tp726
sF0.685
(F0.078
F0.151
F0.078
F0.151
tp727
sF0.912
(F0.0362
F0.2756
F0.0362
F0.2756
tp728
sF0.715
(F0.0734
F0.1604
F0.0734
F0.1604
tp729
sF0.813
(F0.0568
F0.1992
F0.0568
F0.1992
tp730
sF0.527
(F0.1046
F0.1138
F0.1046
F0.1138
tp731
sF0.586
(F0.0946
F0.1262
F0.0946
F0.1262
tp732
sF0.009
(F0.4446
F0.0052
F0.4446
F0.0052
tp733
sF0.007
(F0.4562
F0.0046
F0.4562
F0.0046
tp734
sF0.667
(F0.081
F0.146
F0.081
F0.146
tp735
sF0.432
(F0.123
F0.0962
F0.123
F0.0962
tp736
sF0.896
(F0.0402
F0.2578
F0.0402
F0.2578
tp737
sF0.172
(F0.201
F0.0494
F0.201
F0.0494
tp738
sF0.619
(F0.0892
F0.1338
F0.0892
F0.1338
tp739
sF0.735
(F0.0702
F0.1672
F0.0702
F0.1672
tp740
sF0.385
(F0.1334
F0.0874
F0.1334
F0.0874
tp741
sF0.859
(F0.0478
F0.227
F0.0478
F0.227
tp742
sF0.63
(F0.0872
F0.136
F0.0872
F0.136
tp743
sF0.531
(F0.104
F0.1144
F0.104
F0.1144
tp744
sF0.189
(F0.1928
F0.0528
F0.1928
F0.0528
tp745
sF0.268
(F0.1638
F0.0672
F0.1638
F0.0672
tp746
sF0.795
(F0.0604
F0.1912
F0.0604
F0.1912
tp747
sF0.029
(F0.363
F0.0144
F0.363
F0.0144
tp748
sF0.431
(F0.123
F0.0956
F0.123
F0.0956
tp749
sF0.222
(F0.1792
F0.0588
F0.1792
F0.0588
tp750
sF0.693
(F0.0768
F0.1534
F0.0768
F0.1534
tp751
sF0.185
(F0.1948
F0.052
F0.1948
F0.052
tp752
sF0.296
(F0.1558
F0.072
F0.1558
F0.072
tp753
sF0.994
(F0.0058
F0.4818
F0.0058
F0.4818
tp754
sF0.805
(F0.0586
F0.1956
F0.0586
F0.1956
tp755
sF0.236
(F0.174
F0.0618
F0.174
F0.0618
tp756
sF0.088
(F0.26
F0.0314
F0.26
F0.0314
tp757
sF0.038
(F0.3388
F0.0172
F0.3388
F0.0172
tp758
sF0.251
(F0.169
F0.0642
F0.169
F0.0642
tp759
sF0.974
(F0.0154
F0.3984
F0.0154
F0.3984
tp760
sF0.707
(F0.0744
F0.1582
F0.0744
F0.1582
tp761
sF0.513
(F0.1076
F0.111
F0.1076
F0.111
tp762
sF0.572
(F0.097
F0.123
F0.097
F0.123
tp763
sF0.028
(F0.366
F0.0142
F0.366
F0.0142
tp764
sF0.169
(F0.2022
F0.0492
F0.2022
F0.0492
tp765
sF0.942
(F0.028
F0.32
F0.028
F0.32
tp766
sF0.954
(F0.024
F0.3442
F0.024
F0.3442
tp767
sF0.433
(F0.1226
F0.0962
F0.1226
F0.0962
tp768
sF0.015
(F0.414
F0.008
F0.414
F0.008
tp769
sF0.605
(F0.0912
F0.1304
F0.0912
F0.1304
tp770
sF0.92
(F0.0344
F0.286
F0.0344
F0.286
tp771
sF0.378
(F0.135
F0.0862
F0.135
F0.0862
tp772
sF0.631
(F0.087
F0.1362
F0.087
F0.1362
tp773
sF0.033
(F0.3514
F0.0156
F0.3514
F0.0156
tp774
sF0.691
(F0.0772
F0.153
F0.0772
F0.153
tp775
sF0.332
(F0.1458
F0.0778
F0.1458
F0.0778
tp776
sF0.106
(F0.243
F0.0354
F0.243
F0.0354
tp777
sF0.836
(F0.053
F0.2122
F0.053
F0.2122
tp778
sF0.856
(F0.0488
F0.2248
F0.0488
F0.2248
tp779
sF0.904
(F0.0382
F0.266
F0.0382
F0.266
tp780
sF0.62
(F0.089
F0.134
F0.089
F0.134
tp781
sF0.47
(F0.1152
F0.1028
F0.1152
F0.1028
tp782
sF0.058
(F0.299
F0.0232
F0.299
F0.0232
tp783
sF0.591
(F0.094
F0.1274
F0.094
F0.1274
tp784
sF0.821
(F0.0556
F0.2036
F0.0556
F0.2036
tp785
sF0.265
(F0.1648
F0.0668
F0.1648
F0.0668
tp786
sF0.079
(F0.27
F0.0288
F0.27
F0.0288
tp787
sF0.123
(F0.2298
F0.0394
F0.2298
F0.0394
tp788
sF0.849
(F0.0502
F0.2202
F0.0502
F0.2202
tp789
sF0.293
(F0.1566
F0.0716
F0.1566
F0.0716
tp790
sF0.734
(F0.0704
F0.167
F0.0704
F0.167
tp791
sF0.043
(F0.3274
F0.0186
F0.3274
F0.0186
tp792
sF0.686
(F0.0778
F0.1514
F0.0778
F0.1514
tp793
sF0.696
(F0.0764
F0.1544
F0.0764
F0.1544
tp794
sF0.646
(F0.085
F0.1404
F0.085
F0.1404
tp795
sF0.366
(F0.1376
F0.0842
F0.1376
F0.0842
tp796
sF0.483
(F0.1126
F0.1054
F0.1126
F0.1054
tp797
sF0.632
(F0.087
F0.137
F0.087
F0.137
tp798
sF0.791
(F0.0608
F0.1894
F0.0608
F0.1894
tp799
sF0.404
(F0.1286
F0.091
F0.1286
F0.091
tp800
sF0.031
(F0.3566
F0.015
F0.3566
F0.015
tp801
sF0.598
(F0.0926
F0.1288
F0.0926
F0.1288
tp802
sF0.459
(F0.1174
F0.101
F0.1174
F0.101
tp803
sF0.025
(F0.3756
F0.0126
F0.3756
F0.0126
tp804
sF0.964
(F0.0194
F0.3684
F0.0194
F0.3684
tp805
sF0.55
(F0.1008
F0.1184
F0.1008
F0.1184
tp806
sF0.45
(F0.119
F0.0992
F0.119
F0.0992
tp807
sF0.073
(F0.2776
F0.0272
F0.2776
F0.0272
tp808
sF0.292
(F0.1568
F0.0716
F0.1568
F0.0716
tp809
sF0.767
(F0.0648
F0.1792
F0.0648
F0.1792
tp810
sF0.786
(F0.0618
F0.1868
F0.0618
F0.1868
tp811
sF0.712
(F0.0738
F0.1596
F0.0738
F0.1596
tp812
sF0.736
(F0.0702
F0.1676
F0.0702
F0.1676
tp813
sF0.944
(F0.0274
F0.324
F0.0274
F0.324
tp814
sF0.834
(F0.0534
F0.2112
F0.0534
F0.2112
tp815
sF0.664
(F0.0818
F0.1454
F0.0818
F0.1454
tp816
sF0.003
(F0.4826
F0.0032
F0.4826
F0.0032
tp817
sF0.577
(F0.0962
F0.1242
F0.0962
F0.1242
tp818
sF0.326
(F0.1476
F0.077
F0.1476
F0.077
tp819
sF0.472
(F0.1148
F0.1034
F0.1148
F0.1034
tp820
sF0.953
(F0.0244
F0.3422
F0.0244
F0.3422
tp821
sF0.941
(F0.0282
F0.3186
F0.0282
F0.3186
tp822
sF0.576
(F0.0962
F0.124
F0.0962
F0.124
tp823
sF0.448
(F0.1196
F0.099
F0.1196
F0.099
tp824
sF0.551
(F0.1002
F0.1186
F0.1002
F0.1186
tp825
sF0.61
(F0.0906
F0.1318
F0.0906
F0.1318
tp826
sF0.89
(F0.0418
F0.252
F0.0418
F0.252
tp827
sF0.528
(F0.1046
F0.1142
F0.1046
F0.1142
tp828
sF0.021
(F0.3892
F0.0108
F0.3892
F0.0108
tp829
sF0.126
(F0.2276
F0.0398
F0.2276
F0.0398
tp830
sF0.131
(F0.2242
F0.041
F0.2242
F0.041
tp831
sF0.219
(F0.1804
F0.0584
F0.1804
F0.0584
tp832
sF0.272
(F0.1624
F0.068
F0.1624
F0.068
tp833
sF0.69
(F0.0772
F0.1524
F0.0772
F0.1524
tp834
sF0.091
(F0.2568
F0.032
F0.2568
F0.032
tp835
sF0.87
(F0.0458
F0.235
F0.0458
F0.235
tp836
sF0.145
(F0.2152
F0.0442
F0.2152
F0.0442
tp837
sF0.443
(F0.1204
F0.098
F0.1204
F0.098
tp838
sF0.41
(F0.1276
F0.092
F0.1276
F0.092
tp839
sF0.214
(F0.1822
F0.0574
F0.1822
F0.0574
tp840
sF0.757
(F0.0666
F0.1754
F0.0666
F0.1754
tp841
sF0.437
(F0.1218
F0.0968
F0.1218
F0.0968
tp842
sF0.662
(F0.082
F0.1448
F0.082
F0.1448
tp843
sF0.024
(F0.3792
F0.0126
F0.3792
F0.0126
tp844
sF0.231
(F0.176
F0.0606
F0.176
F0.0606
tp845
sF0.563
(F0.0982
F0.121
F0.0982
F0.121
tp846
sF0.83
(F0.054
F0.2084
F0.054
F0.2084
tp847
sF0.494
(F0.1106
F0.1074
F0.1106
F0.1074
tp848
sF0.354
(F0.1404
F0.0818
F0.1404
F0.0818
tp849
sF0.854
(F0.049
F0.2232
F0.049
F0.2232
tp850
sF0.796
(F0.06
F0.1914
F0.06
F0.1914
tp851
sF0.497
(F0.11
F0.108
F0.11
F0.108
tp852
sF0.596
(F0.0932
F0.1284
F0.0932
F0.1284
tp853
sF0.493
(F0.1108
F0.107
F0.1108
F0.107
tp854
sF0.837
(F0.0526
F0.2126
F0.0526
F0.2126
tp855
sF0.503
(F0.1088
F0.109
F0.1088
F0.109
tp856
sF0.263
(F0.1652
F0.0664
F0.1652
F0.0664
tp857
sF0.732
(F0.0704
F0.1662
F0.0704
F0.1662
tp858
sF0.682
(F0.0786
F0.1502
F0.0786
F0.1502
tp859
sF0.984
(F0.0108
F0.4348
F0.0108
F0.4348
tp860
sF0.502
(F0.1094
F0.109
F0.1094
F0.109
tp861
sF0.39
(F0.1322
F0.0884
F0.1322
F0.0884
tp862
sF0.482
(F0.1128
F0.105
F0.1128
F0.105
tp863
sF0.945
(F0.0272
F0.3258
F0.0272
F0.3258
tp864
sF0.477
(F0.1138
F0.1044
F0.1138
F0.1044
tp865
sF0.229
(F0.177
F0.0602
F0.177
F0.0602
tp866
sF0.523
(F0.1056
F0.1132
F0.1056
F0.1132
tp867
sF0.052
(F0.3096
F0.0212
F0.3096
F0.0212
tp868
sF0.006
(F0.4624
F0.0042
F0.4624
F0.0042
tp869
sF0.93
(F0.0314
F0.3002
F0.0314
F0.3002
tp870
sF0.31
(F0.1518
F0.0742
F0.1518
F0.0742
tp871
sF0.243
(F0.1718
F0.0628
F0.1718
F0.0628
tp872
sF0.647
(F0.0848
F0.1406
F0.0848
F0.1406
tp873
sF0.731
(F0.0708
F0.1658
F0.0708
F0.1658
tp874
sF0.103
(F0.2454
F0.0348
F0.2454
F0.0348
tp875
sF0.556
(F0.0998
F0.1196
F0.0998
F0.1196
tp876
sF0.615
(F0.0898
F0.1328
F0.0898
F0.1328
tp877
sF0.91
(F0.0368
F0.2732
F0.0368
F0.2732
tp878
sF0.832
(F0.0538
F0.2096
F0.0538
F0.2096
tp879
sF0.812
(F0.057
F0.1992
F0.057
F0.1992
tp880
sF0.558
(F0.0992
F0.12
F0.0992
F0.12
tp881
sF0.961
(F0.0212
F0.3612
F0.0212
F0.3612
tp882
sF0.365
(F0.1382
F0.0838
F0.1382
F0.0838
tp883
sF0.013
(F0.4236
F0.0072
F0.4236
F0.0072
tp884
sF0.871
(F0.0454
F0.2358
F0.0454
F0.2358
tp885
sF0.462
(F0.1168
F0.1012
F0.1168
F0.1012
tp886
sF0.076
(F0.274
F0.0282
F0.274
F0.0282
tp887
sF0.595
(F0.0934
F0.1284
F0.0934
F0.1284
tp888
sF0.547
(F0.1012
F0.1176
F0.1012
F0.1176
tp889
sF0.274
(F0.1618
F0.0682
F0.1618
F0.0682
tp890
sF0.476
(F0.114
F0.1038
F0.114
F0.1038
tp891
sF0.383
(F0.1336
F0.0872
F0.1336
F0.0872
tp892
sF0.475
(F0.1144
F0.1038
F0.1144
F0.1038
tp893
sF0.208
(F0.1848
F0.0562
F0.1848
F0.0562
tp894
sF0.584
(F0.0952
F0.1256
F0.0952
F0.1256
tp895
sF0.452
(F0.1188
F0.0998
F0.1188
F0.0998
tp896
sF0.833
(F0.0536
F0.2102
F0.0536
F0.2102
tp897
sF0.661
(F0.082
F0.1444
F0.082
F0.1444
tp898
sF0.24
(F0.1728
F0.062
F0.1728
F0.062
tp899
sF0.225
(F0.1782
F0.0596
F0.1782
F0.0596
tp900
sF0.408
(F0.128
F0.0916
F0.128
F0.0916
tp901
sF0.797
(F0.0598
F0.1916
F0.0598
F0.1916
tp902
sF0.259
(F0.1666
F0.0658
F0.1666
F0.0658
tp903
sF0.698
(F0.0762
F0.1552
F0.0762
F0.1552
tp904
sF0.542
(F0.1022
F0.1166
F0.1022
F0.1166
tp905
sF0.061
(F0.2942
F0.024
F0.2942
F0.024
tp906
sF0.279
(F0.1602
F0.0692
F0.1602
F0.0692
tp907
sF0.76
(F0.0662
F0.1762
F0.0662
F0.1762
tp908
sF0.758
(F0.0664
F0.1756
F0.0664
F0.1756
tp909
sF0.165
(F0.2044
F0.0482
F0.2044
F0.0482
tp910
sF0.777
(F0.0634
F0.1832
F0.0634
F0.1832
tp911
sF0.016
(F0.4096
F0.0088
F0.4096
F0.0088
tp912
sF0.108
(F0.2412
F0.036
F0.2412
F0.036
tp913
sF0.568
(F0.0976
F0.1222
F0.0976
F0.1222
tp914
sF0.455
(F0.118
F0.1002
F0.118
F0.1002
tp915
sF0.179
(F0.1974
F0.0508
F0.1974
F0.0508
tp916
sF0.643
(F0.085
F0.1396
F0.085
F0.1396
tp917
sF0.142
(F0.2168
F0.0432
F0.2168
F0.0432
tp918
sF0.216
(F0.1818
F0.0578
F0.1818
F0.0578
tp919
sF0.88
(F0.0436
F0.243
F0.0436
F0.243
tp920
sF0.094
(F0.2538
F0.0326
F0.2538
F0.0326
tp921
sF0.151
(F0.2116
F0.0452
F0.2116
F0.0452
tp922
sF0.779
(F0.063
F0.1842
F0.063
F0.1842
tp923
sF0.02
(F0.3932
F0.0104
F0.3932
F0.0104
tp924
sF0.445
(F0.12
F0.0982
F0.12
F0.0982
tp925
sF0.934
(F0.0304
F0.3062
F0.0304
F0.3062
tp926
sF0.892
(F0.041
F0.254
F0.041
F0.254
tp927
sF0.946
(F0.0268
F0.3276
F0.0268
F0.3276
tp928
sF0.911
(F0.0366
F0.2744
F0.0366
F0.2744
tp929
sF0.561
(F0.0988
F0.1206
F0.0988
F0.1206
tp930
sF0.168
(F0.2026
F0.049
F0.2026
F0.049
tp931
sF0.861
(F0.0478
F0.2282
F0.0478
F0.2282
tp932
sF0.683
(F0.0784
F0.1506
F0.0784
F0.1506
tp933
sF0.353
(F0.1408
F0.0818
F0.1408
F0.0818
tp934
sF0.406
(F0.1284
F0.0914
F0.1284
F0.0914
tp935
sF0.132
(F0.2234
F0.0414
F0.2234
F0.0414
tp936
sF0.587
(F0.0942
F0.1264
F0.0942
F0.1264
tp937
sF0.402
(F0.1294
F0.0904
F0.1294
F0.0904
tp938
sF0.841
(F0.0518
F0.2152
F0.0518
F0.2152
tp939
sF0.262
(F0.1658
F0.0664
F0.1658
F0.0664
tp940
sF0.136
(F0.2208
F0.042
F0.2208
F0.042
tp941
sF0.633
(F0.087
F0.137
F0.087
F0.137
tp942
sF0.989
(F0.0078
F0.4564
F0.0078
F0.4564
tp943
sF0.323
(F0.1482
F0.0764
F0.1482
F0.0764
tp944
sF0.415
(F0.1264
F0.093
F0.1264
F0.093
tp945
sF0.097
(F0.251
F0.0334
F0.251
F0.0334
tp946
sF0.614
(F0.0902
F0.1326
F0.0902
F0.1326
tp947
sF0.276
(F0.1612
F0.0686
F0.1612
F0.0686
tp948
sF0.001
(F0.4972
F0.0032
F0.4972
F0.0032
tp949
sF0.985
(F0.01
F0.4388
F0.01
F0.4388
tp950
sF0.113
(F0.2372
F0.0372
F0.2372
F0.0372
tp951
sF0.313
(F0.1508
F0.0748
F0.1508
F0.0748
tp952
sF0.253
(F0.1684
F0.0646
F0.1684
F0.0646
tp953
sF0.152
(F0.2108
F0.0456
F0.2108
F0.0456
tp954
sF0.603
(F0.092
F0.13
F0.092
F0.13
tp955
sF0.956
(F0.0234
F0.349
F0.0234
F0.349
tp956
sF0.12
(F0.2318
F0.0386
F0.2318
F0.0386
tp957
sF0.975
(F0.015
F0.4016
F0.015
F0.4016
tp958
sF0.86
(F0.0478
F0.2274
F0.0478
F0.2274
tp959
sF0.388
(F0.1324
F0.0882
F0.1324
F0.0882
tp960
sF0.042
(F0.3294
F0.0184
F0.3294
F0.0184
tp961
sF0.606
(F0.0912
F0.1304
F0.0912
F0.1304
tp962
sF0.68
(F0.0788
F0.1496
F0.0788
F0.1496
tp963
sF0.778
(F0.0632
F0.1836
F0.0632
F0.1836
tp964
sF0.787
(F0.0618
F0.1874
F0.0618
F0.1874
tp965
sF0.182
(F0.1958
F0.0514
F0.1958
F0.0514
tp966
sF0.728
(F0.0714
F0.165
F0.0714
F0.165
tp967
sF0.914
(F0.036
F0.2782
F0.036
F0.2782
tp968
sF0.855
(F0.0488
F0.224
F0.0488
F0.224
tp969
sF0.955
(F0.0234
F0.3468
F0.0234
F0.3468
tp970
sF0.456
(F0.1178
F0.1002
F0.1178
F0.1002
tp971
sF0.592
(F0.0936
F0.1274
F0.0936
F0.1274
tp972
sF0.514
(F0.1072
F0.1114
F0.1072
F0.1114
tp973
sF0.573
(F0.097
F0.1234
F0.097
F0.1234
tp974
sF0.395
(F0.1312
F0.0894
F0.1312
F0.0894
tp975
sF0.921
(F0.0344
F0.2874
F0.0344
F0.2874
tp976
sF0.046
(F0.3212
F0.0194
F0.3212
F0.0194
tp977
sF0.199
(F0.1886
F0.0548
F0.1886
F0.0548
tp978
sF0.412
(F0.1272
F0.0922
F0.1272
F0.0922
tp979
sF0.709
(F0.0744
F0.1584
F0.0744
F0.1584
tp980
sF0.29
(F0.1572
F0.0708
F0.1572
F0.0708
tp981
sF0.581
(F0.0954
F0.1252
F0.0954
F0.1252
tp982
sF0.441
(F0.1208
F0.0972
F0.1208
F0.0972
tp983
sF0.283
(F0.1592
F0.0698
F0.1592
F0.0698
tp984
sF0.901
(F0.0392
F0.2628
F0.0392
F0.2628
tp985
sF0.679
(F0.079
F0.1494
F0.079
F0.1494
tp986
sF0.829
(F0.0542
F0.2082
F0.0542
F0.2082
tp987
sF0.658
(F0.0828
F0.1436
F0.0828
F0.1436
tp988
sF0.324
(F0.148
F0.0766
F0.148
F0.0766
tp989
sF0.344
(F0.143
F0.0802
F0.143
F0.0802
tp990
sF0.487
(F0.1118
F0.106
F0.1118
F0.106
tp991
sF0.72
(F0.0726
F0.1622
F0.0726
F0.1622
tp992
sF0.429
(F0.1234
F0.0952
F0.1234
F0.0952
tp993
sF0.32
(F0.149
F0.076
F0.149
F0.076
tp994
sF0.695
(F0.0764
F0.1542
F0.0764
F0.1542
tp995
sF0.774
(F0.0636
F0.182
F0.0636
F0.182
tp996
sF0.634
(F0.087
F0.137
F0.087
F0.137
tp997
sF0.533
(F0.1038
F0.115
F0.1038
F0.115
tp998
sF0.273
(F0.1618
F0.068
F0.1618
F0.068
tp999
sF0.881
(F0.0434
F0.244
F0.0434
F0.244
tp1000
sF0.162
(F0.2054
F0.0476
F0.2054
F0.0476
tp1001
s.
